
random.elf:     file format elf32-littlearm

Sections:
Idx Name          Size      VMA       LMA       File off  Algn
  0 .isr_vector   0000018c  08000000  08000000  00010000  2**0
                  CONTENTS, ALLOC, LOAD, READONLY, DATA
  1 .text         0000499c  08000190  08000190  00010190  2**3
                  CONTENTS, ALLOC, LOAD, READONLY, CODE
  2 .rodata       00000168  08004b2c  08004b2c  00014b2c  2**2
                  CONTENTS, ALLOC, LOAD, READONLY, DATA
  3 .ARM.extab    0000006c  08004c94  08004c94  00014c94  2**2
                  CONTENTS, ALLOC, LOAD, READONLY, DATA
  4 .ARM          000000c8  08004d00  08004d00  00014d00  2**2
                  CONTENTS, ALLOC, LOAD, READONLY, DATA
  5 .preinit_array 00000000  08004dc8  08004dc8  00020078  2**0
                  CONTENTS, ALLOC, LOAD, DATA
  6 .init_array   00000004  08004dc8  08004dc8  00014dc8  2**2
                  CONTENTS, ALLOC, LOAD, DATA
  7 .fini_array   00000004  08004dcc  08004dcc  00014dcc  2**2
                  CONTENTS, ALLOC, LOAD, DATA
  8 .data         00000078  20000000  08004dd0  00020000  2**2
                  CONTENTS, ALLOC, LOAD, DATA
  9 .bss          00000110  20000078  08004e48  00020078  2**2
                  ALLOC
 10 ._user_heap_stack 00000600  20000188  08004e48  00020188  2**0
                  ALLOC
 11 .ARM.attributes 00000030  00000000  00000000  00020078  2**0
                  CONTENTS, READONLY
 12 .comment      00000053  00000000  00000000  000200a8  2**0
                  CONTENTS, READONLY
 13 .debug_frame  00000ebc  00000000  00000000  000200fc  2**2
                  CONTENTS, READONLY, DEBUGGING, OCTETS

Disassembly of section .text:

08000190 <__do_global_dtors_aux>:
 8000190:	b510      	push	{r4, lr}
 8000192:	4c05      	ldr	r4, [pc, #20]	; (80001a8 <__do_global_dtors_aux+0x18>)
 8000194:	7823      	ldrb	r3, [r4, #0]
 8000196:	b933      	cbnz	r3, 80001a6 <__do_global_dtors_aux+0x16>
 8000198:	4b04      	ldr	r3, [pc, #16]	; (80001ac <__do_global_dtors_aux+0x1c>)
 800019a:	b113      	cbz	r3, 80001a2 <__do_global_dtors_aux+0x12>
 800019c:	4804      	ldr	r0, [pc, #16]	; (80001b0 <__do_global_dtors_aux+0x20>)
 800019e:	f3af 8000 	nop.w
 80001a2:	2301      	movs	r3, #1
 80001a4:	7023      	strb	r3, [r4, #0]
 80001a6:	bd10      	pop	{r4, pc}
 80001a8:	20000078 	.word	0x20000078
 80001ac:	00000000 	.word	0x00000000
 80001b0:	08004b14 	.word	0x08004b14

080001b4 <frame_dummy>:
 80001b4:	b508      	push	{r3, lr}
 80001b6:	4b03      	ldr	r3, [pc, #12]	; (80001c4 <frame_dummy+0x10>)
 80001b8:	b11b      	cbz	r3, 80001c2 <frame_dummy+0xe>
 80001ba:	4903      	ldr	r1, [pc, #12]	; (80001c8 <frame_dummy+0x14>)
 80001bc:	4803      	ldr	r0, [pc, #12]	; (80001cc <frame_dummy+0x18>)
 80001be:	f3af 8000 	nop.w
 80001c2:	bd08      	pop	{r3, pc}
 80001c4:	00000000 	.word	0x00000000
 80001c8:	2000007c 	.word	0x2000007c
 80001cc:	08004b14 	.word	0x08004b14

080001d0 <strcmp>:
 80001d0:	f810 2b01 	ldrb.w	r2, [r0], #1
 80001d4:	f811 3b01 	ldrb.w	r3, [r1], #1
 80001d8:	2a01      	cmp	r2, #1
 80001da:	bf28      	it	cs
 80001dc:	429a      	cmpcs	r2, r3
 80001de:	d0f7      	beq.n	80001d0 <strcmp>
 80001e0:	1ad0      	subs	r0, r2, r3
 80001e2:	4770      	bx	lr

080001e4 <__aeabi_dmul>:
 80001e4:	b570      	push	{r4, r5, r6, lr}
 80001e6:	f04f 0cff 	mov.w	ip, #255	; 0xff
 80001ea:	f44c 6ce0 	orr.w	ip, ip, #1792	; 0x700
 80001ee:	ea1c 5411 	ands.w	r4, ip, r1, lsr #20
 80001f2:	bf1d      	ittte	ne
 80001f4:	ea1c 5513 	andsne.w	r5, ip, r3, lsr #20
 80001f8:	ea94 0f0c 	teqne	r4, ip
 80001fc:	ea95 0f0c 	teqne	r5, ip
 8000200:	f000 f8de 	bleq	80003c0 <__aeabi_dmul+0x1dc>
 8000204:	442c      	add	r4, r5
 8000206:	ea81 0603 	eor.w	r6, r1, r3
 800020a:	ea21 514c 	bic.w	r1, r1, ip, lsl #21
 800020e:	ea23 534c 	bic.w	r3, r3, ip, lsl #21
 8000212:	ea50 3501 	orrs.w	r5, r0, r1, lsl #12
 8000216:	bf18      	it	ne
 8000218:	ea52 3503 	orrsne.w	r5, r2, r3, lsl #12
 800021c:	f441 1180 	orr.w	r1, r1, #1048576	; 0x100000
 8000220:	f443 1380 	orr.w	r3, r3, #1048576	; 0x100000
 8000224:	d038      	beq.n	8000298 <__aeabi_dmul+0xb4>
 8000226:	fba0 ce02 	umull	ip, lr, r0, r2
 800022a:	f04f 0500 	mov.w	r5, #0
 800022e:	fbe1 e502 	umlal	lr, r5, r1, r2
 8000232:	f006 4200 	and.w	r2, r6, #2147483648	; 0x80000000
 8000236:	fbe0 e503 	umlal	lr, r5, r0, r3
 800023a:	f04f 0600 	mov.w	r6, #0
 800023e:	fbe1 5603 	umlal	r5, r6, r1, r3
 8000242:	f09c 0f00 	teq	ip, #0
 8000246:	bf18      	it	ne
 8000248:	f04e 0e01 	orrne.w	lr, lr, #1
 800024c:	f1a4 04ff 	sub.w	r4, r4, #255	; 0xff
 8000250:	f5b6 7f00 	cmp.w	r6, #512	; 0x200
 8000254:	f564 7440 	sbc.w	r4, r4, #768	; 0x300
 8000258:	d204      	bcs.n	8000264 <__aeabi_dmul+0x80>
 800025a:	ea5f 0e4e 	movs.w	lr, lr, lsl #1
 800025e:	416d      	adcs	r5, r5
 8000260:	eb46 0606 	adc.w	r6, r6, r6
 8000264:	ea42 21c6 	orr.w	r1, r2, r6, lsl #11
 8000268:	ea41 5155 	orr.w	r1, r1, r5, lsr #21
 800026c:	ea4f 20c5 	mov.w	r0, r5, lsl #11
 8000270:	ea40 505e 	orr.w	r0, r0, lr, lsr #21
 8000274:	ea4f 2ece 	mov.w	lr, lr, lsl #11
 8000278:	f1b4 0cfd 	subs.w	ip, r4, #253	; 0xfd
 800027c:	bf88      	it	hi
 800027e:	f5bc 6fe0 	cmphi.w	ip, #1792	; 0x700
 8000282:	d81e      	bhi.n	80002c2 <__aeabi_dmul+0xde>
 8000284:	f1be 4f00 	cmp.w	lr, #2147483648	; 0x80000000
 8000288:	bf08      	it	eq
 800028a:	ea5f 0e50 	movseq.w	lr, r0, lsr #1
 800028e:	f150 0000 	adcs.w	r0, r0, #0
 8000292:	eb41 5104 	adc.w	r1, r1, r4, lsl #20
 8000296:	bd70      	pop	{r4, r5, r6, pc}
 8000298:	f006 4600 	and.w	r6, r6, #2147483648	; 0x80000000
 800029c:	ea46 0101 	orr.w	r1, r6, r1
 80002a0:	ea40 0002 	orr.w	r0, r0, r2
 80002a4:	ea81 0103 	eor.w	r1, r1, r3
 80002a8:	ebb4 045c 	subs.w	r4, r4, ip, lsr #1
 80002ac:	bfc2      	ittt	gt
 80002ae:	ebd4 050c 	rsbsgt	r5, r4, ip
 80002b2:	ea41 5104 	orrgt.w	r1, r1, r4, lsl #20
 80002b6:	bd70      	popgt	{r4, r5, r6, pc}
 80002b8:	f441 1180 	orr.w	r1, r1, #1048576	; 0x100000
 80002bc:	f04f 0e00 	mov.w	lr, #0
 80002c0:	3c01      	subs	r4, #1
 80002c2:	f300 80ab 	bgt.w	800041c <__aeabi_dmul+0x238>
 80002c6:	f114 0f36 	cmn.w	r4, #54	; 0x36
 80002ca:	bfde      	ittt	le
 80002cc:	2000      	movle	r0, #0
 80002ce:	f001 4100 	andle.w	r1, r1, #2147483648	; 0x80000000
 80002d2:	bd70      	pople	{r4, r5, r6, pc}
 80002d4:	f1c4 0400 	rsb	r4, r4, #0
 80002d8:	3c20      	subs	r4, #32
 80002da:	da35      	bge.n	8000348 <__aeabi_dmul+0x164>
 80002dc:	340c      	adds	r4, #12
 80002de:	dc1b      	bgt.n	8000318 <__aeabi_dmul+0x134>
 80002e0:	f104 0414 	add.w	r4, r4, #20
 80002e4:	f1c4 0520 	rsb	r5, r4, #32
 80002e8:	fa00 f305 	lsl.w	r3, r0, r5
 80002ec:	fa20 f004 	lsr.w	r0, r0, r4
 80002f0:	fa01 f205 	lsl.w	r2, r1, r5
 80002f4:	ea40 0002 	orr.w	r0, r0, r2
 80002f8:	f001 4200 	and.w	r2, r1, #2147483648	; 0x80000000
 80002fc:	f021 4100 	bic.w	r1, r1, #2147483648	; 0x80000000
 8000300:	eb10 70d3 	adds.w	r0, r0, r3, lsr #31
 8000304:	fa21 f604 	lsr.w	r6, r1, r4
 8000308:	eb42 0106 	adc.w	r1, r2, r6
 800030c:	ea5e 0e43 	orrs.w	lr, lr, r3, lsl #1
 8000310:	bf08      	it	eq
 8000312:	ea20 70d3 	biceq.w	r0, r0, r3, lsr #31
 8000316:	bd70      	pop	{r4, r5, r6, pc}
 8000318:	f1c4 040c 	rsb	r4, r4, #12
 800031c:	f1c4 0520 	rsb	r5, r4, #32
 8000320:	fa00 f304 	lsl.w	r3, r0, r4
 8000324:	fa20 f005 	lsr.w	r0, r0, r5
 8000328:	fa01 f204 	lsl.w	r2, r1, r4
 800032c:	ea40 0002 	orr.w	r0, r0, r2
 8000330:	f001 4100 	and.w	r1, r1, #2147483648	; 0x80000000
 8000334:	eb10 70d3 	adds.w	r0, r0, r3, lsr #31
 8000338:	f141 0100 	adc.w	r1, r1, #0
 800033c:	ea5e 0e43 	orrs.w	lr, lr, r3, lsl #1
 8000340:	bf08      	it	eq
 8000342:	ea20 70d3 	biceq.w	r0, r0, r3, lsr #31
 8000346:	bd70      	pop	{r4, r5, r6, pc}
 8000348:	f1c4 0520 	rsb	r5, r4, #32
 800034c:	fa00 f205 	lsl.w	r2, r0, r5
 8000350:	ea4e 0e02 	orr.w	lr, lr, r2
 8000354:	fa20 f304 	lsr.w	r3, r0, r4
 8000358:	fa01 f205 	lsl.w	r2, r1, r5
 800035c:	ea43 0302 	orr.w	r3, r3, r2
 8000360:	fa21 f004 	lsr.w	r0, r1, r4
 8000364:	f001 4100 	and.w	r1, r1, #2147483648	; 0x80000000
 8000368:	fa21 f204 	lsr.w	r2, r1, r4
 800036c:	ea20 0002 	bic.w	r0, r0, r2
 8000370:	eb00 70d3 	add.w	r0, r0, r3, lsr #31
 8000374:	ea5e 0e43 	orrs.w	lr, lr, r3, lsl #1
 8000378:	bf08      	it	eq
 800037a:	ea20 70d3 	biceq.w	r0, r0, r3, lsr #31
 800037e:	bd70      	pop	{r4, r5, r6, pc}
 8000380:	f094 0f00 	teq	r4, #0
 8000384:	d10f      	bne.n	80003a6 <__aeabi_dmul+0x1c2>
 8000386:	f001 4600 	and.w	r6, r1, #2147483648	; 0x80000000
 800038a:	0040      	lsls	r0, r0, #1
 800038c:	eb41 0101 	adc.w	r1, r1, r1
 8000390:	f411 1f80 	tst.w	r1, #1048576	; 0x100000
 8000394:	bf08      	it	eq
 8000396:	3c01      	subeq	r4, #1
 8000398:	d0f7      	beq.n	800038a <__aeabi_dmul+0x1a6>
 800039a:	ea41 0106 	orr.w	r1, r1, r6
 800039e:	f095 0f00 	teq	r5, #0
 80003a2:	bf18      	it	ne
 80003a4:	4770      	bxne	lr
 80003a6:	f003 4600 	and.w	r6, r3, #2147483648	; 0x80000000
 80003aa:	0052      	lsls	r2, r2, #1
 80003ac:	eb43 0303 	adc.w	r3, r3, r3
 80003b0:	f413 1f80 	tst.w	r3, #1048576	; 0x100000
 80003b4:	bf08      	it	eq
 80003b6:	3d01      	subeq	r5, #1
 80003b8:	d0f7      	beq.n	80003aa <__aeabi_dmul+0x1c6>
 80003ba:	ea43 0306 	orr.w	r3, r3, r6
 80003be:	4770      	bx	lr
 80003c0:	ea94 0f0c 	teq	r4, ip
 80003c4:	ea0c 5513 	and.w	r5, ip, r3, lsr #20
 80003c8:	bf18      	it	ne
 80003ca:	ea95 0f0c 	teqne	r5, ip
 80003ce:	d00c      	beq.n	80003ea <__aeabi_dmul+0x206>
 80003d0:	ea50 0641 	orrs.w	r6, r0, r1, lsl #1
 80003d4:	bf18      	it	ne
 80003d6:	ea52 0643 	orrsne.w	r6, r2, r3, lsl #1
 80003da:	d1d1      	bne.n	8000380 <__aeabi_dmul+0x19c>
 80003dc:	ea81 0103 	eor.w	r1, r1, r3
 80003e0:	f001 4100 	and.w	r1, r1, #2147483648	; 0x80000000
 80003e4:	f04f 0000 	mov.w	r0, #0
 80003e8:	bd70      	pop	{r4, r5, r6, pc}
 80003ea:	ea50 0641 	orrs.w	r6, r0, r1, lsl #1
 80003ee:	bf06      	itte	eq
 80003f0:	4610      	moveq	r0, r2
 80003f2:	4619      	moveq	r1, r3
 80003f4:	ea52 0643 	orrsne.w	r6, r2, r3, lsl #1
 80003f8:	d019      	beq.n	800042e <__aeabi_dmul+0x24a>
 80003fa:	ea94 0f0c 	teq	r4, ip
 80003fe:	d102      	bne.n	8000406 <__aeabi_dmul+0x222>
 8000400:	ea50 3601 	orrs.w	r6, r0, r1, lsl #12
 8000404:	d113      	bne.n	800042e <__aeabi_dmul+0x24a>
 8000406:	ea95 0f0c 	teq	r5, ip
 800040a:	d105      	bne.n	8000418 <__aeabi_dmul+0x234>
 800040c:	ea52 3603 	orrs.w	r6, r2, r3, lsl #12
 8000410:	bf1c      	itt	ne
 8000412:	4610      	movne	r0, r2
 8000414:	4619      	movne	r1, r3
 8000416:	d10a      	bne.n	800042e <__aeabi_dmul+0x24a>
 8000418:	ea81 0103 	eor.w	r1, r1, r3
 800041c:	f001 4100 	and.w	r1, r1, #2147483648	; 0x80000000
 8000420:	f041 41fe 	orr.w	r1, r1, #2130706432	; 0x7f000000
 8000424:	f441 0170 	orr.w	r1, r1, #15728640	; 0xf00000
 8000428:	f04f 0000 	mov.w	r0, #0
 800042c:	bd70      	pop	{r4, r5, r6, pc}
 800042e:	f041 41fe 	orr.w	r1, r1, #2130706432	; 0x7f000000
 8000432:	f441 0178 	orr.w	r1, r1, #16252928	; 0xf80000
 8000436:	bd70      	pop	{r4, r5, r6, pc}

08000438 <__aeabi_drsub>:
 8000438:	f081 4100 	eor.w	r1, r1, #2147483648	; 0x80000000
 800043c:	e002      	b.n	8000444 <__adddf3>
 800043e:	bf00      	nop

08000440 <__aeabi_dsub>:
 8000440:	f083 4300 	eor.w	r3, r3, #2147483648	; 0x80000000

08000444 <__adddf3>:
 8000444:	b530      	push	{r4, r5, lr}
 8000446:	ea4f 0441 	mov.w	r4, r1, lsl #1
 800044a:	ea4f 0543 	mov.w	r5, r3, lsl #1
 800044e:	ea94 0f05 	teq	r4, r5
 8000452:	bf08      	it	eq
 8000454:	ea90 0f02 	teqeq	r0, r2
 8000458:	bf1f      	itttt	ne
 800045a:	ea54 0c00 	orrsne.w	ip, r4, r0
 800045e:	ea55 0c02 	orrsne.w	ip, r5, r2
 8000462:	ea7f 5c64 	mvnsne.w	ip, r4, asr #21
 8000466:	ea7f 5c65 	mvnsne.w	ip, r5, asr #21
 800046a:	f000 80e2 	beq.w	8000632 <__adddf3+0x1ee>
 800046e:	ea4f 5454 	mov.w	r4, r4, lsr #21
 8000472:	ebd4 5555 	rsbs	r5, r4, r5, lsr #21
 8000476:	bfb8      	it	lt
 8000478:	426d      	neglt	r5, r5
 800047a:	dd0c      	ble.n	8000496 <__adddf3+0x52>
 800047c:	442c      	add	r4, r5
 800047e:	ea80 0202 	eor.w	r2, r0, r2
 8000482:	ea81 0303 	eor.w	r3, r1, r3
 8000486:	ea82 0000 	eor.w	r0, r2, r0
 800048a:	ea83 0101 	eor.w	r1, r3, r1
 800048e:	ea80 0202 	eor.w	r2, r0, r2
 8000492:	ea81 0303 	eor.w	r3, r1, r3
 8000496:	2d36      	cmp	r5, #54	; 0x36
 8000498:	bf88      	it	hi
 800049a:	bd30      	pophi	{r4, r5, pc}
 800049c:	f011 4f00 	tst.w	r1, #2147483648	; 0x80000000
 80004a0:	ea4f 3101 	mov.w	r1, r1, lsl #12
 80004a4:	f44f 1c80 	mov.w	ip, #1048576	; 0x100000
 80004a8:	ea4c 3111 	orr.w	r1, ip, r1, lsr #12
 80004ac:	d002      	beq.n	80004b4 <__adddf3+0x70>
 80004ae:	4240      	negs	r0, r0
 80004b0:	eb61 0141 	sbc.w	r1, r1, r1, lsl #1
 80004b4:	f013 4f00 	tst.w	r3, #2147483648	; 0x80000000
 80004b8:	ea4f 3303 	mov.w	r3, r3, lsl #12
 80004bc:	ea4c 3313 	orr.w	r3, ip, r3, lsr #12
 80004c0:	d002      	beq.n	80004c8 <__adddf3+0x84>
 80004c2:	4252      	negs	r2, r2
 80004c4:	eb63 0343 	sbc.w	r3, r3, r3, lsl #1
 80004c8:	ea94 0f05 	teq	r4, r5
 80004cc:	f000 80a7 	beq.w	800061e <__adddf3+0x1da>
 80004d0:	f1a4 0401 	sub.w	r4, r4, #1
 80004d4:	f1d5 0e20 	rsbs	lr, r5, #32
 80004d8:	db0d      	blt.n	80004f6 <__adddf3+0xb2>
 80004da:	fa02 fc0e 	lsl.w	ip, r2, lr
 80004de:	fa22 f205 	lsr.w	r2, r2, r5
 80004e2:	1880      	adds	r0, r0, r2
 80004e4:	f141 0100 	adc.w	r1, r1, #0
 80004e8:	fa03 f20e 	lsl.w	r2, r3, lr
 80004ec:	1880      	adds	r0, r0, r2
 80004ee:	fa43 f305 	asr.w	r3, r3, r5
 80004f2:	4159      	adcs	r1, r3
 80004f4:	e00e      	b.n	8000514 <__adddf3+0xd0>
 80004f6:	f1a5 0520 	sub.w	r5, r5, #32
 80004fa:	f10e 0e20 	add.w	lr, lr, #32
 80004fe:	2a01      	cmp	r2, #1
 8000500:	fa03 fc0e 	lsl.w	ip, r3, lr
 8000504:	bf28      	it	cs
 8000506:	f04c 0c02 	orrcs.w	ip, ip, #2
 800050a:	fa43 f305 	asr.w	r3, r3, r5
 800050e:	18c0      	adds	r0, r0, r3
 8000510:	eb51 71e3 	adcs.w	r1, r1, r3, asr #31
 8000514:	f001 4500 	and.w	r5, r1, #2147483648	; 0x80000000
 8000518:	d507      	bpl.n	800052a <__adddf3+0xe6>
 800051a:	f04f 0e00 	mov.w	lr, #0
 800051e:	f1dc 0c00 	rsbs	ip, ip, #0
 8000522:	eb7e 0000 	sbcs.w	r0, lr, r0
 8000526:	eb6e 0101 	sbc.w	r1, lr, r1
 800052a:	f5b1 1f80 	cmp.w	r1, #1048576	; 0x100000
 800052e:	d31b      	bcc.n	8000568 <__adddf3+0x124>
 8000530:	f5b1 1f00 	cmp.w	r1, #2097152	; 0x200000
 8000534:	d30c      	bcc.n	8000550 <__adddf3+0x10c>
 8000536:	0849      	lsrs	r1, r1, #1
 8000538:	ea5f 0030 	movs.w	r0, r0, rrx
 800053c:	ea4f 0c3c 	mov.w	ip, ip, rrx
 8000540:	f104 0401 	add.w	r4, r4, #1
 8000544:	ea4f 5244 	mov.w	r2, r4, lsl #21
 8000548:	f512 0f80 	cmn.w	r2, #4194304	; 0x400000
 800054c:	f080 809a 	bcs.w	8000684 <__adddf3+0x240>
 8000550:	f1bc 4f00 	cmp.w	ip, #2147483648	; 0x80000000
 8000554:	bf08      	it	eq
 8000556:	ea5f 0c50 	movseq.w	ip, r0, lsr #1
 800055a:	f150 0000 	adcs.w	r0, r0, #0
 800055e:	eb41 5104 	adc.w	r1, r1, r4, lsl #20
 8000562:	ea41 0105 	orr.w	r1, r1, r5
 8000566:	bd30      	pop	{r4, r5, pc}
 8000568:	ea5f 0c4c 	movs.w	ip, ip, lsl #1
 800056c:	4140      	adcs	r0, r0
 800056e:	eb41 0101 	adc.w	r1, r1, r1
 8000572:	3c01      	subs	r4, #1
 8000574:	bf28      	it	cs
 8000576:	f5b1 1f80 	cmpcs.w	r1, #1048576	; 0x100000
 800057a:	d2e9      	bcs.n	8000550 <__adddf3+0x10c>
 800057c:	f091 0f00 	teq	r1, #0
 8000580:	bf04      	itt	eq
 8000582:	4601      	moveq	r1, r0
 8000584:	2000      	moveq	r0, #0
 8000586:	fab1 f381 	clz	r3, r1
 800058a:	bf08      	it	eq
 800058c:	3320      	addeq	r3, #32
 800058e:	f1a3 030b 	sub.w	r3, r3, #11
 8000592:	f1b3 0220 	subs.w	r2, r3, #32
 8000596:	da0c      	bge.n	80005b2 <__adddf3+0x16e>
 8000598:	320c      	adds	r2, #12
 800059a:	dd08      	ble.n	80005ae <__adddf3+0x16a>
 800059c:	f102 0c14 	add.w	ip, r2, #20
 80005a0:	f1c2 020c 	rsb	r2, r2, #12
 80005a4:	fa01 f00c 	lsl.w	r0, r1, ip
 80005a8:	fa21 f102 	lsr.w	r1, r1, r2
 80005ac:	e00c      	b.n	80005c8 <__adddf3+0x184>
 80005ae:	f102 0214 	add.w	r2, r2, #20
 80005b2:	bfd8      	it	le
 80005b4:	f1c2 0c20 	rsble	ip, r2, #32
 80005b8:	fa01 f102 	lsl.w	r1, r1, r2
 80005bc:	fa20 fc0c 	lsr.w	ip, r0, ip
 80005c0:	bfdc      	itt	le
 80005c2:	ea41 010c 	orrle.w	r1, r1, ip
 80005c6:	4090      	lslle	r0, r2
 80005c8:	1ae4      	subs	r4, r4, r3
 80005ca:	bfa2      	ittt	ge
 80005cc:	eb01 5104 	addge.w	r1, r1, r4, lsl #20
 80005d0:	4329      	orrge	r1, r5
 80005d2:	bd30      	popge	{r4, r5, pc}
 80005d4:	ea6f 0404 	mvn.w	r4, r4
 80005d8:	3c1f      	subs	r4, #31
 80005da:	da1c      	bge.n	8000616 <__adddf3+0x1d2>
 80005dc:	340c      	adds	r4, #12
 80005de:	dc0e      	bgt.n	80005fe <__adddf3+0x1ba>
 80005e0:	f104 0414 	add.w	r4, r4, #20
 80005e4:	f1c4 0220 	rsb	r2, r4, #32
 80005e8:	fa20 f004 	lsr.w	r0, r0, r4
 80005ec:	fa01 f302 	lsl.w	r3, r1, r2
 80005f0:	ea40 0003 	orr.w	r0, r0, r3
 80005f4:	fa21 f304 	lsr.w	r3, r1, r4
 80005f8:	ea45 0103 	orr.w	r1, r5, r3
 80005fc:	bd30      	pop	{r4, r5, pc}
 80005fe:	f1c4 040c 	rsb	r4, r4, #12
 8000602:	f1c4 0220 	rsb	r2, r4, #32
 8000606:	fa20 f002 	lsr.w	r0, r0, r2
 800060a:	fa01 f304 	lsl.w	r3, r1, r4
 800060e:	ea40 0003 	orr.w	r0, r0, r3
 8000612:	4629      	mov	r1, r5
 8000614:	bd30      	pop	{r4, r5, pc}
 8000616:	fa21 f004 	lsr.w	r0, r1, r4
 800061a:	4629      	mov	r1, r5
 800061c:	bd30      	pop	{r4, r5, pc}
 800061e:	f094 0f00 	teq	r4, #0
 8000622:	f483 1380 	eor.w	r3, r3, #1048576	; 0x100000
 8000626:	bf06      	itte	eq
 8000628:	f481 1180 	eoreq.w	r1, r1, #1048576	; 0x100000
 800062c:	3401      	addeq	r4, #1
 800062e:	3d01      	subne	r5, #1
 8000630:	e74e      	b.n	80004d0 <__adddf3+0x8c>
 8000632:	ea7f 5c64 	mvns.w	ip, r4, asr #21
 8000636:	bf18      	it	ne
 8000638:	ea7f 5c65 	mvnsne.w	ip, r5, asr #21
 800063c:	d029      	beq.n	8000692 <__adddf3+0x24e>
 800063e:	ea94 0f05 	teq	r4, r5
 8000642:	bf08      	it	eq
 8000644:	ea90 0f02 	teqeq	r0, r2
 8000648:	d005      	beq.n	8000656 <__adddf3+0x212>
 800064a:	ea54 0c00 	orrs.w	ip, r4, r0
 800064e:	bf04      	itt	eq
 8000650:	4619      	moveq	r1, r3
 8000652:	4610      	moveq	r0, r2
 8000654:	bd30      	pop	{r4, r5, pc}
 8000656:	ea91 0f03 	teq	r1, r3
 800065a:	bf1e      	ittt	ne
 800065c:	2100      	movne	r1, #0
 800065e:	2000      	movne	r0, #0
 8000660:	bd30      	popne	{r4, r5, pc}
 8000662:	ea5f 5c54 	movs.w	ip, r4, lsr #21
 8000666:	d105      	bne.n	8000674 <__adddf3+0x230>
 8000668:	0040      	lsls	r0, r0, #1
 800066a:	4149      	adcs	r1, r1
 800066c:	bf28      	it	cs
 800066e:	f041 4100 	orrcs.w	r1, r1, #2147483648	; 0x80000000
 8000672:	bd30      	pop	{r4, r5, pc}
 8000674:	f514 0480 	adds.w	r4, r4, #4194304	; 0x400000
 8000678:	bf3c      	itt	cc
 800067a:	f501 1180 	addcc.w	r1, r1, #1048576	; 0x100000
 800067e:	bd30      	popcc	{r4, r5, pc}
 8000680:	f001 4500 	and.w	r5, r1, #2147483648	; 0x80000000
 8000684:	f045 41fe 	orr.w	r1, r5, #2130706432	; 0x7f000000
 8000688:	f441 0170 	orr.w	r1, r1, #15728640	; 0xf00000
 800068c:	f04f 0000 	mov.w	r0, #0
 8000690:	bd30      	pop	{r4, r5, pc}
 8000692:	ea7f 5c64 	mvns.w	ip, r4, asr #21
 8000696:	bf1a      	itte	ne
 8000698:	4619      	movne	r1, r3
 800069a:	4610      	movne	r0, r2
 800069c:	ea7f 5c65 	mvnseq.w	ip, r5, asr #21
 80006a0:	bf1c      	itt	ne
 80006a2:	460b      	movne	r3, r1
 80006a4:	4602      	movne	r2, r0
 80006a6:	ea50 3401 	orrs.w	r4, r0, r1, lsl #12
 80006aa:	bf06      	itte	eq
 80006ac:	ea52 3503 	orrseq.w	r5, r2, r3, lsl #12
 80006b0:	ea91 0f03 	teqeq	r1, r3
 80006b4:	f441 2100 	orrne.w	r1, r1, #524288	; 0x80000
 80006b8:	bd30      	pop	{r4, r5, pc}
 80006ba:	bf00      	nop

080006bc <__aeabi_ui2d>:
 80006bc:	f090 0f00 	teq	r0, #0
 80006c0:	bf04      	itt	eq
 80006c2:	2100      	moveq	r1, #0
 80006c4:	4770      	bxeq	lr
 80006c6:	b530      	push	{r4, r5, lr}
 80006c8:	f44f 6480 	mov.w	r4, #1024	; 0x400
 80006cc:	f104 0432 	add.w	r4, r4, #50	; 0x32
 80006d0:	f04f 0500 	mov.w	r5, #0
 80006d4:	f04f 0100 	mov.w	r1, #0
 80006d8:	e750      	b.n	800057c <__adddf3+0x138>
 80006da:	bf00      	nop

080006dc <__aeabi_i2d>:
 80006dc:	f090 0f00 	teq	r0, #0
 80006e0:	bf04      	itt	eq
 80006e2:	2100      	moveq	r1, #0
 80006e4:	4770      	bxeq	lr
 80006e6:	b530      	push	{r4, r5, lr}
 80006e8:	f44f 6480 	mov.w	r4, #1024	; 0x400
 80006ec:	f104 0432 	add.w	r4, r4, #50	; 0x32
 80006f0:	f010 4500 	ands.w	r5, r0, #2147483648	; 0x80000000
 80006f4:	bf48      	it	mi
 80006f6:	4240      	negmi	r0, r0
 80006f8:	f04f 0100 	mov.w	r1, #0
 80006fc:	e73e      	b.n	800057c <__adddf3+0x138>
 80006fe:	bf00      	nop

08000700 <__aeabi_f2d>:
 8000700:	0042      	lsls	r2, r0, #1
 8000702:	ea4f 01e2 	mov.w	r1, r2, asr #3
 8000706:	ea4f 0131 	mov.w	r1, r1, rrx
 800070a:	ea4f 7002 	mov.w	r0, r2, lsl #28
 800070e:	bf1f      	itttt	ne
 8000710:	f012 437f 	andsne.w	r3, r2, #4278190080	; 0xff000000
 8000714:	f093 4f7f 	teqne	r3, #4278190080	; 0xff000000
 8000718:	f081 5160 	eorne.w	r1, r1, #939524096	; 0x38000000
 800071c:	4770      	bxne	lr
 800071e:	f032 427f 	bics.w	r2, r2, #4278190080	; 0xff000000
 8000722:	bf08      	it	eq
 8000724:	4770      	bxeq	lr
 8000726:	f093 4f7f 	teq	r3, #4278190080	; 0xff000000
 800072a:	bf04      	itt	eq
 800072c:	f441 2100 	orreq.w	r1, r1, #524288	; 0x80000
 8000730:	4770      	bxeq	lr
 8000732:	b530      	push	{r4, r5, lr}
 8000734:	f44f 7460 	mov.w	r4, #896	; 0x380
 8000738:	f001 4500 	and.w	r5, r1, #2147483648	; 0x80000000
 800073c:	f021 4100 	bic.w	r1, r1, #2147483648	; 0x80000000
 8000740:	e71c      	b.n	800057c <__adddf3+0x138>
 8000742:	bf00      	nop

08000744 <__aeabi_ul2d>:
 8000744:	ea50 0201 	orrs.w	r2, r0, r1
 8000748:	bf08      	it	eq
 800074a:	4770      	bxeq	lr
 800074c:	b530      	push	{r4, r5, lr}
 800074e:	f04f 0500 	mov.w	r5, #0
 8000752:	e00a      	b.n	800076a <__aeabi_l2d+0x16>

08000754 <__aeabi_l2d>:
 8000754:	ea50 0201 	orrs.w	r2, r0, r1
 8000758:	bf08      	it	eq
 800075a:	4770      	bxeq	lr
 800075c:	b530      	push	{r4, r5, lr}
 800075e:	f011 4500 	ands.w	r5, r1, #2147483648	; 0x80000000
 8000762:	d502      	bpl.n	800076a <__aeabi_l2d+0x16>
 8000764:	4240      	negs	r0, r0
 8000766:	eb61 0141 	sbc.w	r1, r1, r1, lsl #1
 800076a:	f44f 6480 	mov.w	r4, #1024	; 0x400
 800076e:	f104 0432 	add.w	r4, r4, #50	; 0x32
 8000772:	ea5f 5c91 	movs.w	ip, r1, lsr #22
 8000776:	f43f aed8 	beq.w	800052a <__adddf3+0xe6>
 800077a:	f04f 0203 	mov.w	r2, #3
 800077e:	ea5f 0cdc 	movs.w	ip, ip, lsr #3
 8000782:	bf18      	it	ne
 8000784:	3203      	addne	r2, #3
 8000786:	ea5f 0cdc 	movs.w	ip, ip, lsr #3
 800078a:	bf18      	it	ne
 800078c:	3203      	addne	r2, #3
 800078e:	eb02 02dc 	add.w	r2, r2, ip, lsr #3
 8000792:	f1c2 0320 	rsb	r3, r2, #32
 8000796:	fa00 fc03 	lsl.w	ip, r0, r3
 800079a:	fa20 f002 	lsr.w	r0, r0, r2
 800079e:	fa01 fe03 	lsl.w	lr, r1, r3
 80007a2:	ea40 000e 	orr.w	r0, r0, lr
 80007a6:	fa21 f102 	lsr.w	r1, r1, r2
 80007aa:	4414      	add	r4, r2
 80007ac:	e6bd      	b.n	800052a <__adddf3+0xe6>
 80007ae:	bf00      	nop

080007b0 <__aeabi_d2uiz>:
 80007b0:	004a      	lsls	r2, r1, #1
 80007b2:	d211      	bcs.n	80007d8 <__aeabi_d2uiz+0x28>
 80007b4:	f512 1200 	adds.w	r2, r2, #2097152	; 0x200000
 80007b8:	d211      	bcs.n	80007de <__aeabi_d2uiz+0x2e>
 80007ba:	d50d      	bpl.n	80007d8 <__aeabi_d2uiz+0x28>
 80007bc:	f46f 7378 	mvn.w	r3, #992	; 0x3e0
 80007c0:	ebb3 5262 	subs.w	r2, r3, r2, asr #21
 80007c4:	d40e      	bmi.n	80007e4 <__aeabi_d2uiz+0x34>
 80007c6:	ea4f 23c1 	mov.w	r3, r1, lsl #11
 80007ca:	f043 4300 	orr.w	r3, r3, #2147483648	; 0x80000000
 80007ce:	ea43 5350 	orr.w	r3, r3, r0, lsr #21
 80007d2:	fa23 f002 	lsr.w	r0, r3, r2
 80007d6:	4770      	bx	lr
 80007d8:	f04f 0000 	mov.w	r0, #0
 80007dc:	4770      	bx	lr
 80007de:	ea50 3001 	orrs.w	r0, r0, r1, lsl #12
 80007e2:	d102      	bne.n	80007ea <__aeabi_d2uiz+0x3a>
 80007e4:	f04f 30ff 	mov.w	r0, #4294967295	; 0xffffffff
 80007e8:	4770      	bx	lr
 80007ea:	f04f 0000 	mov.w	r0, #0
 80007ee:	4770      	bx	lr

080007f0 <selfrel_offset31>:
 80007f0:	6803      	ldr	r3, [r0, #0]
 80007f2:	005a      	lsls	r2, r3, #1
 80007f4:	bf4c      	ite	mi
 80007f6:	f043 4300 	orrmi.w	r3, r3, #2147483648	; 0x80000000
 80007fa:	f023 4300 	bicpl.w	r3, r3, #2147483648	; 0x80000000
 80007fe:	4418      	add	r0, r3
 8000800:	4770      	bx	lr
 8000802:	bf00      	nop

08000804 <search_EIT_table>:
 8000804:	e92d 43f8 	stmdb	sp!, {r3, r4, r5, r6, r7, r8, r9, lr}
 8000808:	b329      	cbz	r1, 8000856 <search_EIT_table+0x52>
 800080a:	1e4f      	subs	r7, r1, #1
 800080c:	4604      	mov	r4, r0
 800080e:	4615      	mov	r5, r2
 8000810:	463e      	mov	r6, r7
 8000812:	f04f 0800 	mov.w	r8, #0
 8000816:	eb08 0106 	add.w	r1, r8, r6
 800081a:	eb01 71d1 	add.w	r1, r1, r1, lsr #31
 800081e:	1049      	asrs	r1, r1, #1
 8000820:	eb04 09c1 	add.w	r9, r4, r1, lsl #3
 8000824:	4648      	mov	r0, r9
 8000826:	f7ff ffe3 	bl	80007f0 <selfrel_offset31>
 800082a:	4603      	mov	r3, r0
 800082c:	00c8      	lsls	r0, r1, #3
 800082e:	3008      	adds	r0, #8
 8000830:	428f      	cmp	r7, r1
 8000832:	4420      	add	r0, r4
 8000834:	d009      	beq.n	800084a <search_EIT_table+0x46>
 8000836:	42ab      	cmp	r3, r5
 8000838:	d809      	bhi.n	800084e <search_EIT_table+0x4a>
 800083a:	f7ff ffd9 	bl	80007f0 <selfrel_offset31>
 800083e:	3801      	subs	r0, #1
 8000840:	42a8      	cmp	r0, r5
 8000842:	d20a      	bcs.n	800085a <search_EIT_table+0x56>
 8000844:	f101 0801 	add.w	r8, r1, #1
 8000848:	e7e5      	b.n	8000816 <search_EIT_table+0x12>
 800084a:	42ab      	cmp	r3, r5
 800084c:	d905      	bls.n	800085a <search_EIT_table+0x56>
 800084e:	4588      	cmp	r8, r1
 8000850:	d001      	beq.n	8000856 <search_EIT_table+0x52>
 8000852:	1e4e      	subs	r6, r1, #1
 8000854:	e7df      	b.n	8000816 <search_EIT_table+0x12>
 8000856:	f04f 0900 	mov.w	r9, #0
 800085a:	4648      	mov	r0, r9
 800085c:	e8bd 83f8 	ldmia.w	sp!, {r3, r4, r5, r6, r7, r8, r9, pc}

08000860 <__gnu_unwind_get_pr_addr>:
 8000860:	2801      	cmp	r0, #1
 8000862:	d007      	beq.n	8000874 <__gnu_unwind_get_pr_addr+0x14>
 8000864:	2802      	cmp	r0, #2
 8000866:	d007      	beq.n	8000878 <__gnu_unwind_get_pr_addr+0x18>
 8000868:	4b04      	ldr	r3, [pc, #16]	; (800087c <__gnu_unwind_get_pr_addr+0x1c>)
 800086a:	2800      	cmp	r0, #0
 800086c:	bf0c      	ite	eq
 800086e:	4618      	moveq	r0, r3
 8000870:	2000      	movne	r0, #0
 8000872:	4770      	bx	lr
 8000874:	4802      	ldr	r0, [pc, #8]	; (8000880 <__gnu_unwind_get_pr_addr+0x20>)
 8000876:	4770      	bx	lr
 8000878:	4802      	ldr	r0, [pc, #8]	; (8000884 <__gnu_unwind_get_pr_addr+0x24>)
 800087a:	4770      	bx	lr
 800087c:	08000f25 	.word	0x08000f25
 8000880:	08000f29 	.word	0x08000f29
 8000884:	08000f2d 	.word	0x08000f2d

08000888 <get_eit_entry>:
 8000888:	b530      	push	{r4, r5, lr}
 800088a:	4b23      	ldr	r3, [pc, #140]	; (8000918 <get_eit_entry+0x90>)
 800088c:	b083      	sub	sp, #12
 800088e:	4604      	mov	r4, r0
 8000890:	1e8d      	subs	r5, r1, #2
 8000892:	b33b      	cbz	r3, 80008e4 <get_eit_entry+0x5c>
 8000894:	a901      	add	r1, sp, #4
 8000896:	4628      	mov	r0, r5
 8000898:	f3af 8000 	nop.w
 800089c:	b1e8      	cbz	r0, 80008da <get_eit_entry+0x52>
 800089e:	9901      	ldr	r1, [sp, #4]
 80008a0:	462a      	mov	r2, r5
 80008a2:	f7ff ffaf 	bl	8000804 <search_EIT_table>
 80008a6:	4601      	mov	r1, r0
 80008a8:	b1b8      	cbz	r0, 80008da <get_eit_entry+0x52>
 80008aa:	f7ff ffa1 	bl	80007f0 <selfrel_offset31>
 80008ae:	684b      	ldr	r3, [r1, #4]
 80008b0:	64a0      	str	r0, [r4, #72]	; 0x48
 80008b2:	2b01      	cmp	r3, #1
 80008b4:	d02b      	beq.n	800090e <get_eit_entry+0x86>
 80008b6:	2b00      	cmp	r3, #0
 80008b8:	f101 0004 	add.w	r0, r1, #4
 80008bc:	db23      	blt.n	8000906 <get_eit_entry+0x7e>
 80008be:	f7ff ff97 	bl	80007f0 <selfrel_offset31>
 80008c2:	2300      	movs	r3, #0
 80008c4:	e9c4 0313 	strd	r0, r3, [r4, #76]	; 0x4c
 80008c8:	6803      	ldr	r3, [r0, #0]
 80008ca:	2b00      	cmp	r3, #0
 80008cc:	db10      	blt.n	80008f0 <get_eit_entry+0x68>
 80008ce:	f7ff ff8f 	bl	80007f0 <selfrel_offset31>
 80008d2:	6120      	str	r0, [r4, #16]
 80008d4:	2000      	movs	r0, #0
 80008d6:	b003      	add	sp, #12
 80008d8:	bd30      	pop	{r4, r5, pc}
 80008da:	2300      	movs	r3, #0
 80008dc:	2009      	movs	r0, #9
 80008de:	6123      	str	r3, [r4, #16]
 80008e0:	b003      	add	sp, #12
 80008e2:	bd30      	pop	{r4, r5, pc}
 80008e4:	490d      	ldr	r1, [pc, #52]	; (800091c <get_eit_entry+0x94>)
 80008e6:	480e      	ldr	r0, [pc, #56]	; (8000920 <get_eit_entry+0x98>)
 80008e8:	1a09      	subs	r1, r1, r0
 80008ea:	10c9      	asrs	r1, r1, #3
 80008ec:	9101      	str	r1, [sp, #4]
 80008ee:	e7d7      	b.n	80008a0 <get_eit_entry+0x18>
 80008f0:	f3c3 6003 	ubfx	r0, r3, #24, #4
 80008f4:	f7ff ffb4 	bl	8000860 <__gnu_unwind_get_pr_addr>
 80008f8:	2800      	cmp	r0, #0
 80008fa:	6120      	str	r0, [r4, #16]
 80008fc:	bf14      	ite	ne
 80008fe:	2000      	movne	r0, #0
 8000900:	2009      	moveq	r0, #9
 8000902:	b003      	add	sp, #12
 8000904:	bd30      	pop	{r4, r5, pc}
 8000906:	2301      	movs	r3, #1
 8000908:	e9c4 0313 	strd	r0, r3, [r4, #76]	; 0x4c
 800090c:	e7dc      	b.n	80008c8 <get_eit_entry+0x40>
 800090e:	2300      	movs	r3, #0
 8000910:	6123      	str	r3, [r4, #16]
 8000912:	2005      	movs	r0, #5
 8000914:	e7df      	b.n	80008d6 <get_eit_entry+0x4e>
 8000916:	bf00      	nop
 8000918:	00000000 	.word	0x00000000
 800091c:	08004dc8 	.word	0x08004dc8
 8000920:	08004d00 	.word	0x08004d00

08000924 <restore_non_core_regs>:
 8000924:	6803      	ldr	r3, [r0, #0]
 8000926:	07da      	lsls	r2, r3, #31
 8000928:	b510      	push	{r4, lr}
 800092a:	4604      	mov	r4, r0
 800092c:	d406      	bmi.n	800093c <restore_non_core_regs+0x18>
 800092e:	079b      	lsls	r3, r3, #30
 8000930:	f100 0048 	add.w	r0, r0, #72	; 0x48
 8000934:	d509      	bpl.n	800094a <restore_non_core_regs+0x26>
 8000936:	f000 fc4b 	bl	80011d0 <__gnu_Unwind_Restore_VFP_D>
 800093a:	6823      	ldr	r3, [r4, #0]
 800093c:	0759      	lsls	r1, r3, #29
 800093e:	d509      	bpl.n	8000954 <restore_non_core_regs+0x30>
 8000940:	071a      	lsls	r2, r3, #28
 8000942:	d50e      	bpl.n	8000962 <restore_non_core_regs+0x3e>
 8000944:	06db      	lsls	r3, r3, #27
 8000946:	d513      	bpl.n	8000970 <restore_non_core_regs+0x4c>
 8000948:	bd10      	pop	{r4, pc}
 800094a:	f000 fc39 	bl	80011c0 <__gnu_Unwind_Restore_VFP>
 800094e:	6823      	ldr	r3, [r4, #0]
 8000950:	0759      	lsls	r1, r3, #29
 8000952:	d4f5      	bmi.n	8000940 <restore_non_core_regs+0x1c>
 8000954:	f104 00d0 	add.w	r0, r4, #208	; 0xd0
 8000958:	f000 fc42 	bl	80011e0 <__gnu_Unwind_Restore_VFP_D_16_to_31>
 800095c:	6823      	ldr	r3, [r4, #0]
 800095e:	071a      	lsls	r2, r3, #28
 8000960:	d4f0      	bmi.n	8000944 <restore_non_core_regs+0x20>
 8000962:	f504 70a8 	add.w	r0, r4, #336	; 0x150
 8000966:	f000 fc43 	bl	80011f0 <__gnu_Unwind_Restore_WMMXD>
 800096a:	6823      	ldr	r3, [r4, #0]
 800096c:	06db      	lsls	r3, r3, #27
 800096e:	d4eb      	bmi.n	8000948 <restore_non_core_regs+0x24>
 8000970:	f504 70e8 	add.w	r0, r4, #464	; 0x1d0
 8000974:	e8bd 4010 	ldmia.w	sp!, {r4, lr}
 8000978:	f000 bc7e 	b.w	8001278 <__gnu_Unwind_Restore_WMMXC>

0800097c <_Unwind_decode_typeinfo_ptr.isra.0>:
 800097c:	4603      	mov	r3, r0
 800097e:	6800      	ldr	r0, [r0, #0]
 8000980:	b100      	cbz	r0, 8000984 <_Unwind_decode_typeinfo_ptr.isra.0+0x8>
 8000982:	4418      	add	r0, r3
 8000984:	4770      	bx	lr
 8000986:	bf00      	nop

08000988 <__gnu_unwind_24bit.isra.0>:
 8000988:	2009      	movs	r0, #9
 800098a:	4770      	bx	lr

0800098c <_Unwind_DebugHook>:
 800098c:	4770      	bx	lr
 800098e:	bf00      	nop

08000990 <unwind_phase2>:
 8000990:	b570      	push	{r4, r5, r6, lr}
 8000992:	4604      	mov	r4, r0
 8000994:	460e      	mov	r6, r1
 8000996:	6c31      	ldr	r1, [r6, #64]	; 0x40
 8000998:	4620      	mov	r0, r4
 800099a:	f7ff ff75 	bl	8000888 <get_eit_entry>
 800099e:	4605      	mov	r5, r0
 80009a0:	b988      	cbnz	r0, 80009c6 <unwind_phase2+0x36>
 80009a2:	6c33      	ldr	r3, [r6, #64]	; 0x40
 80009a4:	6163      	str	r3, [r4, #20]
 80009a6:	4632      	mov	r2, r6
 80009a8:	6923      	ldr	r3, [r4, #16]
 80009aa:	4621      	mov	r1, r4
 80009ac:	2001      	movs	r0, #1
 80009ae:	4798      	blx	r3
 80009b0:	2808      	cmp	r0, #8
 80009b2:	d0f0      	beq.n	8000996 <unwind_phase2+0x6>
 80009b4:	2807      	cmp	r0, #7
 80009b6:	d106      	bne.n	80009c6 <unwind_phase2+0x36>
 80009b8:	4628      	mov	r0, r5
 80009ba:	6c31      	ldr	r1, [r6, #64]	; 0x40
 80009bc:	f7ff ffe6 	bl	800098c <_Unwind_DebugHook>
 80009c0:	1d30      	adds	r0, r6, #4
 80009c2:	f000 fbf1 	bl	80011a8 <__restore_core_regs>
 80009c6:	f003 ff3b 	bl	8004840 <abort>
 80009ca:	bf00      	nop

080009cc <unwind_phase2_forced>:
 80009cc:	e92d 47f0 	stmdb	sp!, {r4, r5, r6, r7, r8, r9, sl, lr}
 80009d0:	1d0d      	adds	r5, r1, #4
 80009d2:	4606      	mov	r6, r0
 80009d4:	4614      	mov	r4, r2
 80009d6:	cd0f      	ldmia	r5!, {r0, r1, r2, r3}
 80009d8:	f5ad 7d72 	sub.w	sp, sp, #968	; 0x3c8
 80009dc:	f10d 0c0c 	add.w	ip, sp, #12
 80009e0:	e8ac 000f 	stmia.w	ip!, {r0, r1, r2, r3}
 80009e4:	cd0f      	ldmia	r5!, {r0, r1, r2, r3}
 80009e6:	e8ac 000f 	stmia.w	ip!, {r0, r1, r2, r3}
 80009ea:	cd0f      	ldmia	r5!, {r0, r1, r2, r3}
 80009ec:	e8ac 000f 	stmia.w	ip!, {r0, r1, r2, r3}
 80009f0:	e895 000f 	ldmia.w	r5, {r0, r1, r2, r3}
 80009f4:	ad02      	add	r5, sp, #8
 80009f6:	68f7      	ldr	r7, [r6, #12]
 80009f8:	f8d6 8018 	ldr.w	r8, [r6, #24]
 80009fc:	e88c 000f 	stmia.w	ip, {r0, r1, r2, r3}
 8000a00:	2300      	movs	r3, #0
 8000a02:	602b      	str	r3, [r5, #0]
 8000a04:	e021      	b.n	8000a4a <unwind_phase2_forced+0x7e>
 8000a06:	6c2b      	ldr	r3, [r5, #64]	; 0x40
 8000a08:	6173      	str	r3, [r6, #20]
 8000a0a:	f44f 72f0 	mov.w	r2, #480	; 0x1e0
 8000a0e:	4629      	mov	r1, r5
 8000a10:	a87a      	add	r0, sp, #488	; 0x1e8
 8000a12:	f004 f871 	bl	8004af8 <memcpy>
 8000a16:	6933      	ldr	r3, [r6, #16]
 8000a18:	aa7a      	add	r2, sp, #488	; 0x1e8
 8000a1a:	4631      	mov	r1, r6
 8000a1c:	4650      	mov	r0, sl
 8000a1e:	4798      	blx	r3
 8000a20:	9b88      	ldr	r3, [sp, #544]	; 0x220
 8000a22:	e9cd 5800 	strd	r5, r8, [sp]
 8000a26:	4621      	mov	r1, r4
 8000a28:	646b      	str	r3, [r5, #68]	; 0x44
 8000a2a:	4681      	mov	r9, r0
 8000a2c:	4633      	mov	r3, r6
 8000a2e:	4632      	mov	r2, r6
 8000a30:	2001      	movs	r0, #1
 8000a32:	47b8      	blx	r7
 8000a34:	4604      	mov	r4, r0
 8000a36:	b9e8      	cbnz	r0, 8000a74 <unwind_phase2_forced+0xa8>
 8000a38:	f44f 72f0 	mov.w	r2, #480	; 0x1e0
 8000a3c:	a97a      	add	r1, sp, #488	; 0x1e8
 8000a3e:	4628      	mov	r0, r5
 8000a40:	f004 f85a 	bl	8004af8 <memcpy>
 8000a44:	f1b9 0f08 	cmp.w	r9, #8
 8000a48:	d11b      	bne.n	8000a82 <unwind_phase2_forced+0xb6>
 8000a4a:	6c29      	ldr	r1, [r5, #64]	; 0x40
 8000a4c:	4630      	mov	r0, r6
 8000a4e:	f7ff ff1b 	bl	8000888 <get_eit_entry>
 8000a52:	3409      	adds	r4, #9
 8000a54:	fa5f fa84 	uxtb.w	sl, r4
 8000a58:	4681      	mov	r9, r0
 8000a5a:	2800      	cmp	r0, #0
 8000a5c:	d0d3      	beq.n	8000a06 <unwind_phase2_forced+0x3a>
 8000a5e:	6bab      	ldr	r3, [r5, #56]	; 0x38
 8000a60:	f04a 0110 	orr.w	r1, sl, #16
 8000a64:	e9cd 5800 	strd	r5, r8, [sp]
 8000a68:	4632      	mov	r2, r6
 8000a6a:	646b      	str	r3, [r5, #68]	; 0x44
 8000a6c:	2001      	movs	r0, #1
 8000a6e:	4633      	mov	r3, r6
 8000a70:	47b8      	blx	r7
 8000a72:	b108      	cbz	r0, 8000a78 <unwind_phase2_forced+0xac>
 8000a74:	f04f 0909 	mov.w	r9, #9
 8000a78:	4648      	mov	r0, r9
 8000a7a:	f50d 7d72 	add.w	sp, sp, #968	; 0x3c8
 8000a7e:	e8bd 87f0 	ldmia.w	sp!, {r4, r5, r6, r7, r8, r9, sl, pc}
 8000a82:	f1b9 0f07 	cmp.w	r9, #7
 8000a86:	d1f5      	bne.n	8000a74 <unwind_phase2_forced+0xa8>
 8000a88:	4620      	mov	r0, r4
 8000a8a:	6c29      	ldr	r1, [r5, #64]	; 0x40
 8000a8c:	f7ff ff7e 	bl	800098c <_Unwind_DebugHook>
 8000a90:	a803      	add	r0, sp, #12
 8000a92:	f000 fb89 	bl	80011a8 <__restore_core_regs>
 8000a96:	bf00      	nop

08000a98 <_Unwind_GetCFA>:
 8000a98:	6c40      	ldr	r0, [r0, #68]	; 0x44
 8000a9a:	4770      	bx	lr

08000a9c <__gnu_Unwind_RaiseException>:
 8000a9c:	b5f0      	push	{r4, r5, r6, r7, lr}
 8000a9e:	6bcb      	ldr	r3, [r1, #60]	; 0x3c
 8000aa0:	640b      	str	r3, [r1, #64]	; 0x40
 8000aa2:	1d0e      	adds	r6, r1, #4
 8000aa4:	460f      	mov	r7, r1
 8000aa6:	4605      	mov	r5, r0
 8000aa8:	ce0f      	ldmia	r6!, {r0, r1, r2, r3}
 8000aaa:	b0f9      	sub	sp, #484	; 0x1e4
 8000aac:	ac01      	add	r4, sp, #4
 8000aae:	c40f      	stmia	r4!, {r0, r1, r2, r3}
 8000ab0:	ce0f      	ldmia	r6!, {r0, r1, r2, r3}
 8000ab2:	c40f      	stmia	r4!, {r0, r1, r2, r3}
 8000ab4:	ce0f      	ldmia	r6!, {r0, r1, r2, r3}
 8000ab6:	c40f      	stmia	r4!, {r0, r1, r2, r3}
 8000ab8:	e896 000f 	ldmia.w	r6, {r0, r1, r2, r3}
 8000abc:	f04f 36ff 	mov.w	r6, #4294967295	; 0xffffffff
 8000ac0:	e884 000f 	stmia.w	r4, {r0, r1, r2, r3}
 8000ac4:	9600      	str	r6, [sp, #0]
 8000ac6:	e006      	b.n	8000ad6 <__gnu_Unwind_RaiseException+0x3a>
 8000ac8:	692b      	ldr	r3, [r5, #16]
 8000aca:	466a      	mov	r2, sp
 8000acc:	4629      	mov	r1, r5
 8000ace:	4798      	blx	r3
 8000ad0:	2808      	cmp	r0, #8
 8000ad2:	4604      	mov	r4, r0
 8000ad4:	d108      	bne.n	8000ae8 <__gnu_Unwind_RaiseException+0x4c>
 8000ad6:	9910      	ldr	r1, [sp, #64]	; 0x40
 8000ad8:	4628      	mov	r0, r5
 8000ada:	f7ff fed5 	bl	8000888 <get_eit_entry>
 8000ade:	2800      	cmp	r0, #0
 8000ae0:	d0f2      	beq.n	8000ac8 <__gnu_Unwind_RaiseException+0x2c>
 8000ae2:	2009      	movs	r0, #9
 8000ae4:	b079      	add	sp, #484	; 0x1e4
 8000ae6:	bdf0      	pop	{r4, r5, r6, r7, pc}
 8000ae8:	4668      	mov	r0, sp
 8000aea:	f7ff ff1b 	bl	8000924 <restore_non_core_regs>
 8000aee:	2c06      	cmp	r4, #6
 8000af0:	d1f7      	bne.n	8000ae2 <__gnu_Unwind_RaiseException+0x46>
 8000af2:	4639      	mov	r1, r7
 8000af4:	4628      	mov	r0, r5
 8000af6:	f7ff ff4b 	bl	8000990 <unwind_phase2>
 8000afa:	bf00      	nop

08000afc <__gnu_Unwind_ForcedUnwind>:
 8000afc:	b430      	push	{r4, r5}
 8000afe:	6bdd      	ldr	r5, [r3, #60]	; 0x3c
 8000b00:	60c1      	str	r1, [r0, #12]
 8000b02:	6182      	str	r2, [r0, #24]
 8000b04:	4619      	mov	r1, r3
 8000b06:	641d      	str	r5, [r3, #64]	; 0x40
 8000b08:	2200      	movs	r2, #0
 8000b0a:	bc30      	pop	{r4, r5}
 8000b0c:	e75e      	b.n	80009cc <unwind_phase2_forced>
 8000b0e:	bf00      	nop

08000b10 <__gnu_Unwind_Resume>:
 8000b10:	b570      	push	{r4, r5, r6, lr}
 8000b12:	68c6      	ldr	r6, [r0, #12]
 8000b14:	6943      	ldr	r3, [r0, #20]
 8000b16:	640b      	str	r3, [r1, #64]	; 0x40
 8000b18:	b9ae      	cbnz	r6, 8000b46 <__gnu_Unwind_Resume+0x36>
 8000b1a:	6903      	ldr	r3, [r0, #16]
 8000b1c:	460a      	mov	r2, r1
 8000b1e:	4604      	mov	r4, r0
 8000b20:	460d      	mov	r5, r1
 8000b22:	4601      	mov	r1, r0
 8000b24:	2002      	movs	r0, #2
 8000b26:	4798      	blx	r3
 8000b28:	2807      	cmp	r0, #7
 8000b2a:	d005      	beq.n	8000b38 <__gnu_Unwind_Resume+0x28>
 8000b2c:	2808      	cmp	r0, #8
 8000b2e:	d10f      	bne.n	8000b50 <__gnu_Unwind_Resume+0x40>
 8000b30:	4629      	mov	r1, r5
 8000b32:	4620      	mov	r0, r4
 8000b34:	f7ff ff2c 	bl	8000990 <unwind_phase2>
 8000b38:	4630      	mov	r0, r6
 8000b3a:	6c29      	ldr	r1, [r5, #64]	; 0x40
 8000b3c:	f7ff ff26 	bl	800098c <_Unwind_DebugHook>
 8000b40:	1d28      	adds	r0, r5, #4
 8000b42:	f000 fb31 	bl	80011a8 <__restore_core_regs>
 8000b46:	2201      	movs	r2, #1
 8000b48:	f7ff ff40 	bl	80009cc <unwind_phase2_forced>
 8000b4c:	f003 fe78 	bl	8004840 <abort>
 8000b50:	f003 fe76 	bl	8004840 <abort>

08000b54 <__gnu_Unwind_Resume_or_Rethrow>:
 8000b54:	68c2      	ldr	r2, [r0, #12]
 8000b56:	b11a      	cbz	r2, 8000b60 <__gnu_Unwind_Resume_or_Rethrow+0xc>
 8000b58:	6bca      	ldr	r2, [r1, #60]	; 0x3c
 8000b5a:	640a      	str	r2, [r1, #64]	; 0x40
 8000b5c:	2200      	movs	r2, #0
 8000b5e:	e735      	b.n	80009cc <unwind_phase2_forced>
 8000b60:	e79c      	b.n	8000a9c <__gnu_Unwind_RaiseException>
 8000b62:	bf00      	nop

08000b64 <_Unwind_Complete>:
 8000b64:	4770      	bx	lr
 8000b66:	bf00      	nop

08000b68 <_Unwind_DeleteException>:
 8000b68:	6883      	ldr	r3, [r0, #8]
 8000b6a:	4601      	mov	r1, r0
 8000b6c:	b10b      	cbz	r3, 8000b72 <_Unwind_DeleteException+0xa>
 8000b6e:	2001      	movs	r0, #1
 8000b70:	4718      	bx	r3
 8000b72:	4770      	bx	lr

08000b74 <_Unwind_VRS_Get>:
 8000b74:	2901      	cmp	r1, #1
 8000b76:	d012      	beq.n	8000b9e <_Unwind_VRS_Get+0x2a>
 8000b78:	d809      	bhi.n	8000b8e <_Unwind_VRS_Get+0x1a>
 8000b7a:	b973      	cbnz	r3, 8000b9a <_Unwind_VRS_Get+0x26>
 8000b7c:	2a0f      	cmp	r2, #15
 8000b7e:	d80c      	bhi.n	8000b9a <_Unwind_VRS_Get+0x26>
 8000b80:	eb00 0282 	add.w	r2, r0, r2, lsl #2
 8000b84:	4618      	mov	r0, r3
 8000b86:	6853      	ldr	r3, [r2, #4]
 8000b88:	9a00      	ldr	r2, [sp, #0]
 8000b8a:	6013      	str	r3, [r2, #0]
 8000b8c:	4770      	bx	lr
 8000b8e:	3903      	subs	r1, #3
 8000b90:	2901      	cmp	r1, #1
 8000b92:	bf94      	ite	ls
 8000b94:	2001      	movls	r0, #1
 8000b96:	2002      	movhi	r0, #2
 8000b98:	4770      	bx	lr
 8000b9a:	2002      	movs	r0, #2
 8000b9c:	4770      	bx	lr
 8000b9e:	4608      	mov	r0, r1
 8000ba0:	4770      	bx	lr
 8000ba2:	bf00      	nop

08000ba4 <_Unwind_GetGR>:
 8000ba4:	b510      	push	{r4, lr}
 8000ba6:	b084      	sub	sp, #16
 8000ba8:	2300      	movs	r3, #0
 8000baa:	ac03      	add	r4, sp, #12
 8000bac:	460a      	mov	r2, r1
 8000bae:	9400      	str	r4, [sp, #0]
 8000bb0:	4619      	mov	r1, r3
 8000bb2:	f7ff ffdf 	bl	8000b74 <_Unwind_VRS_Get>
 8000bb6:	9803      	ldr	r0, [sp, #12]
 8000bb8:	b004      	add	sp, #16
 8000bba:	bd10      	pop	{r4, pc}

08000bbc <_Unwind_VRS_Set>:
 8000bbc:	2901      	cmp	r1, #1
 8000bbe:	d012      	beq.n	8000be6 <_Unwind_VRS_Set+0x2a>
 8000bc0:	d809      	bhi.n	8000bd6 <_Unwind_VRS_Set+0x1a>
 8000bc2:	b973      	cbnz	r3, 8000be2 <_Unwind_VRS_Set+0x26>
 8000bc4:	2a0f      	cmp	r2, #15
 8000bc6:	d80c      	bhi.n	8000be2 <_Unwind_VRS_Set+0x26>
 8000bc8:	eb00 0082 	add.w	r0, r0, r2, lsl #2
 8000bcc:	9a00      	ldr	r2, [sp, #0]
 8000bce:	6812      	ldr	r2, [r2, #0]
 8000bd0:	6042      	str	r2, [r0, #4]
 8000bd2:	4618      	mov	r0, r3
 8000bd4:	4770      	bx	lr
 8000bd6:	3903      	subs	r1, #3
 8000bd8:	2901      	cmp	r1, #1
 8000bda:	bf94      	ite	ls
 8000bdc:	2001      	movls	r0, #1
 8000bde:	2002      	movhi	r0, #2
 8000be0:	4770      	bx	lr
 8000be2:	2002      	movs	r0, #2
 8000be4:	4770      	bx	lr
 8000be6:	4608      	mov	r0, r1
 8000be8:	4770      	bx	lr
 8000bea:	bf00      	nop

08000bec <_Unwind_SetGR>:
 8000bec:	b510      	push	{r4, lr}
 8000bee:	b084      	sub	sp, #16
 8000bf0:	2300      	movs	r3, #0
 8000bf2:	ac03      	add	r4, sp, #12
 8000bf4:	9203      	str	r2, [sp, #12]
 8000bf6:	9400      	str	r4, [sp, #0]
 8000bf8:	460a      	mov	r2, r1
 8000bfa:	4619      	mov	r1, r3
 8000bfc:	f7ff ffde 	bl	8000bbc <_Unwind_VRS_Set>
 8000c00:	b004      	add	sp, #16
 8000c02:	bd10      	pop	{r4, pc}

08000c04 <__gnu_Unwind_Backtrace>:
 8000c04:	b5f0      	push	{r4, r5, r6, r7, lr}
 8000c06:	6bd3      	ldr	r3, [r2, #60]	; 0x3c
 8000c08:	6413      	str	r3, [r2, #64]	; 0x40
 8000c0a:	1d15      	adds	r5, r2, #4
 8000c0c:	468c      	mov	ip, r1
 8000c0e:	4606      	mov	r6, r0
 8000c10:	cd0f      	ldmia	r5!, {r0, r1, r2, r3}
 8000c12:	f5ad 7d0f 	sub.w	sp, sp, #572	; 0x23c
 8000c16:	ac17      	add	r4, sp, #92	; 0x5c
 8000c18:	c40f      	stmia	r4!, {r0, r1, r2, r3}
 8000c1a:	cd0f      	ldmia	r5!, {r0, r1, r2, r3}
 8000c1c:	c40f      	stmia	r4!, {r0, r1, r2, r3}
 8000c1e:	cd0f      	ldmia	r5!, {r0, r1, r2, r3}
 8000c20:	c40f      	stmia	r4!, {r0, r1, r2, r3}
 8000c22:	e895 000f 	ldmia.w	r5, {r0, r1, r2, r3}
 8000c26:	f04f 37ff 	mov.w	r7, #4294967295	; 0xffffffff
 8000c2a:	e884 000f 	stmia.w	r4, {r0, r1, r2, r3}
 8000c2e:	4665      	mov	r5, ip
 8000c30:	9716      	str	r7, [sp, #88]	; 0x58
 8000c32:	e010      	b.n	8000c56 <__gnu_Unwind_Backtrace+0x52>
 8000c34:	f7ff ffda 	bl	8000bec <_Unwind_SetGR>
 8000c38:	4629      	mov	r1, r5
 8000c3a:	a816      	add	r0, sp, #88	; 0x58
 8000c3c:	47b0      	blx	r6
 8000c3e:	4603      	mov	r3, r0
 8000c40:	aa16      	add	r2, sp, #88	; 0x58
 8000c42:	4669      	mov	r1, sp
 8000c44:	2008      	movs	r0, #8
 8000c46:	b983      	cbnz	r3, 8000c6a <__gnu_Unwind_Backtrace+0x66>
 8000c48:	9b04      	ldr	r3, [sp, #16]
 8000c4a:	4798      	blx	r3
 8000c4c:	2805      	cmp	r0, #5
 8000c4e:	4604      	mov	r4, r0
 8000c50:	d00c      	beq.n	8000c6c <__gnu_Unwind_Backtrace+0x68>
 8000c52:	2809      	cmp	r0, #9
 8000c54:	d009      	beq.n	8000c6a <__gnu_Unwind_Backtrace+0x66>
 8000c56:	9926      	ldr	r1, [sp, #152]	; 0x98
 8000c58:	4668      	mov	r0, sp
 8000c5a:	f7ff fe15 	bl	8000888 <get_eit_entry>
 8000c5e:	4603      	mov	r3, r0
 8000c60:	466a      	mov	r2, sp
 8000c62:	210c      	movs	r1, #12
 8000c64:	a816      	add	r0, sp, #88	; 0x58
 8000c66:	2b00      	cmp	r3, #0
 8000c68:	d0e4      	beq.n	8000c34 <__gnu_Unwind_Backtrace+0x30>
 8000c6a:	2409      	movs	r4, #9
 8000c6c:	a816      	add	r0, sp, #88	; 0x58
 8000c6e:	f7ff fe59 	bl	8000924 <restore_non_core_regs>
 8000c72:	4620      	mov	r0, r4
 8000c74:	f50d 7d0f 	add.w	sp, sp, #572	; 0x23c
 8000c78:	bdf0      	pop	{r4, r5, r6, r7, pc}
 8000c7a:	bf00      	nop

08000c7c <__gnu_unwind_pr_common>:
 8000c7c:	e92d 4ff0 	stmdb	sp!, {r4, r5, r6, r7, r8, r9, sl, fp, lr}
 8000c80:	6ccc      	ldr	r4, [r1, #76]	; 0x4c
 8000c82:	b089      	sub	sp, #36	; 0x24
 8000c84:	460d      	mov	r5, r1
 8000c86:	f854 1b04 	ldr.w	r1, [r4], #4
 8000c8a:	9406      	str	r4, [sp, #24]
 8000c8c:	4617      	mov	r7, r2
 8000c8e:	f000 0803 	and.w	r8, r0, #3
 8000c92:	461e      	mov	r6, r3
 8000c94:	2b00      	cmp	r3, #0
 8000c96:	d079      	beq.n	8000d8c <__gnu_unwind_pr_common+0x110>
 8000c98:	0c0b      	lsrs	r3, r1, #16
 8000c9a:	b2da      	uxtb	r2, r3
 8000c9c:	0409      	lsls	r1, r1, #16
 8000c9e:	f88d 301d 	strb.w	r3, [sp, #29]
 8000ca2:	2302      	movs	r3, #2
 8000ca4:	eb04 0482 	add.w	r4, r4, r2, lsl #2
 8000ca8:	9105      	str	r1, [sp, #20]
 8000caa:	f88d 301c 	strb.w	r3, [sp, #28]
 8000cae:	6d2b      	ldr	r3, [r5, #80]	; 0x50
 8000cb0:	f1b8 0f02 	cmp.w	r8, #2
 8000cb4:	bf08      	it	eq
 8000cb6:	6bac      	ldreq	r4, [r5, #56]	; 0x38
 8000cb8:	f013 0301 	ands.w	r3, r3, #1
 8000cbc:	d00c      	beq.n	8000cd8 <__gnu_unwind_pr_common+0x5c>
 8000cbe:	4638      	mov	r0, r7
 8000cc0:	a905      	add	r1, sp, #20
 8000cc2:	f000 fb73 	bl	80013ac <__gnu_unwind_execute>
 8000cc6:	b918      	cbnz	r0, 8000cd0 <__gnu_unwind_pr_common+0x54>
 8000cc8:	2008      	movs	r0, #8
 8000cca:	b009      	add	sp, #36	; 0x24
 8000ccc:	e8bd 8ff0 	ldmia.w	sp!, {r4, r5, r6, r7, r8, r9, sl, fp, pc}
 8000cd0:	2009      	movs	r0, #9
 8000cd2:	b009      	add	sp, #36	; 0x24
 8000cd4:	e8bd 8ff0 	ldmia.w	sp!, {r4, r5, r6, r7, r8, r9, sl, fp, pc}
 8000cd8:	f8d4 a000 	ldr.w	sl, [r4]
 8000cdc:	f1ba 0f00 	cmp.w	sl, #0
 8000ce0:	d0ed      	beq.n	8000cbe <__gnu_unwind_pr_common+0x42>
 8000ce2:	9301      	str	r3, [sp, #4]
 8000ce4:	f000 0308 	and.w	r3, r0, #8
 8000ce8:	9302      	str	r3, [sp, #8]
 8000cea:	2e02      	cmp	r6, #2
 8000cec:	d04a      	beq.n	8000d84 <__gnu_unwind_pr_common+0x108>
 8000cee:	f8b4 a000 	ldrh.w	sl, [r4]
 8000cf2:	f8b4 9002 	ldrh.w	r9, [r4, #2]
 8000cf6:	3404      	adds	r4, #4
 8000cf8:	6caa      	ldr	r2, [r5, #72]	; 0x48
 8000cfa:	f029 0b01 	bic.w	fp, r9, #1
 8000cfe:	210f      	movs	r1, #15
 8000d00:	4638      	mov	r0, r7
 8000d02:	4493      	add	fp, r2
 8000d04:	f7ff ff4e 	bl	8000ba4 <_Unwind_GetGR>
 8000d08:	4583      	cmp	fp, r0
 8000d0a:	d839      	bhi.n	8000d80 <__gnu_unwind_pr_common+0x104>
 8000d0c:	f02a 0201 	bic.w	r2, sl, #1
 8000d10:	445a      	add	r2, fp
 8000d12:	4282      	cmp	r2, r0
 8000d14:	bf94      	ite	ls
 8000d16:	2000      	movls	r0, #0
 8000d18:	2001      	movhi	r0, #1
 8000d1a:	ea4f 0349 	mov.w	r3, r9, lsl #1
 8000d1e:	f003 0302 	and.w	r3, r3, #2
 8000d22:	f00a 0a01 	and.w	sl, sl, #1
 8000d26:	ea43 030a 	orr.w	r3, r3, sl
 8000d2a:	2b01      	cmp	r3, #1
 8000d2c:	d049      	beq.n	8000dc2 <__gnu_unwind_pr_common+0x146>
 8000d2e:	2b02      	cmp	r3, #2
 8000d30:	d032      	beq.n	8000d98 <__gnu_unwind_pr_common+0x11c>
 8000d32:	2b00      	cmp	r3, #0
 8000d34:	d1cc      	bne.n	8000cd0 <__gnu_unwind_pr_common+0x54>
 8000d36:	f1b8 0f00 	cmp.w	r8, #0
 8000d3a:	d002      	beq.n	8000d42 <__gnu_unwind_pr_common+0xc6>
 8000d3c:	2800      	cmp	r0, #0
 8000d3e:	f040 80cd 	bne.w	8000edc <__gnu_unwind_pr_common+0x260>
 8000d42:	3404      	adds	r4, #4
 8000d44:	f8d4 a000 	ldr.w	sl, [r4]
 8000d48:	f1ba 0f00 	cmp.w	sl, #0
 8000d4c:	d1cd      	bne.n	8000cea <__gnu_unwind_pr_common+0x6e>
 8000d4e:	a905      	add	r1, sp, #20
 8000d50:	4638      	mov	r0, r7
 8000d52:	f000 fb2b 	bl	80013ac <__gnu_unwind_execute>
 8000d56:	2800      	cmp	r0, #0
 8000d58:	d1ba      	bne.n	8000cd0 <__gnu_unwind_pr_common+0x54>
 8000d5a:	9b01      	ldr	r3, [sp, #4]
 8000d5c:	2b00      	cmp	r3, #0
 8000d5e:	d0b3      	beq.n	8000cc8 <__gnu_unwind_pr_common+0x4c>
 8000d60:	210f      	movs	r1, #15
 8000d62:	4638      	mov	r0, r7
 8000d64:	f7ff ff1e 	bl	8000ba4 <_Unwind_GetGR>
 8000d68:	210e      	movs	r1, #14
 8000d6a:	4602      	mov	r2, r0
 8000d6c:	4638      	mov	r0, r7
 8000d6e:	f7ff ff3d 	bl	8000bec <_Unwind_SetGR>
 8000d72:	4638      	mov	r0, r7
 8000d74:	4a6a      	ldr	r2, [pc, #424]	; (8000f20 <__gnu_unwind_pr_common+0x2a4>)
 8000d76:	210f      	movs	r1, #15
 8000d78:	f7ff ff38 	bl	8000bec <_Unwind_SetGR>
 8000d7c:	2007      	movs	r0, #7
 8000d7e:	e7a8      	b.n	8000cd2 <__gnu_unwind_pr_common+0x56>
 8000d80:	2000      	movs	r0, #0
 8000d82:	e7ca      	b.n	8000d1a <__gnu_unwind_pr_common+0x9e>
 8000d84:	f8d4 9004 	ldr.w	r9, [r4, #4]
 8000d88:	3408      	adds	r4, #8
 8000d8a:	e7b5      	b.n	8000cf8 <__gnu_unwind_pr_common+0x7c>
 8000d8c:	0209      	lsls	r1, r1, #8
 8000d8e:	2303      	movs	r3, #3
 8000d90:	9105      	str	r1, [sp, #20]
 8000d92:	f8ad 301c 	strh.w	r3, [sp, #28]
 8000d96:	e78a      	b.n	8000cae <__gnu_unwind_pr_common+0x32>
 8000d98:	6823      	ldr	r3, [r4, #0]
 8000d9a:	f023 4b00 	bic.w	fp, r3, #2147483648	; 0x80000000
 8000d9e:	f1b8 0f00 	cmp.w	r8, #0
 8000da2:	d145      	bne.n	8000e30 <__gnu_unwind_pr_common+0x1b4>
 8000da4:	b128      	cbz	r0, 8000db2 <__gnu_unwind_pr_common+0x136>
 8000da6:	9a02      	ldr	r2, [sp, #8]
 8000da8:	2a00      	cmp	r2, #0
 8000daa:	d05c      	beq.n	8000e66 <__gnu_unwind_pr_common+0x1ea>
 8000dac:	f1bb 0f00 	cmp.w	fp, #0
 8000db0:	d074      	beq.n	8000e9c <__gnu_unwind_pr_common+0x220>
 8000db2:	2b00      	cmp	r3, #0
 8000db4:	da00      	bge.n	8000db8 <__gnu_unwind_pr_common+0x13c>
 8000db6:	3404      	adds	r4, #4
 8000db8:	f10b 0b01 	add.w	fp, fp, #1
 8000dbc:	eb04 048b 	add.w	r4, r4, fp, lsl #2
 8000dc0:	e7c0      	b.n	8000d44 <__gnu_unwind_pr_common+0xc8>
 8000dc2:	f1b8 0f00 	cmp.w	r8, #0
 8000dc6:	d119      	bne.n	8000dfc <__gnu_unwind_pr_common+0x180>
 8000dc8:	b1b0      	cbz	r0, 8000df8 <__gnu_unwind_pr_common+0x17c>
 8000dca:	e9d4 2300 	ldrd	r2, r3, [r4]
 8000dce:	1c99      	adds	r1, r3, #2
 8000dd0:	ea4f 72d2 	mov.w	r2, r2, lsr #31
 8000dd4:	f43f af7c 	beq.w	8000cd0 <__gnu_unwind_pr_common+0x54>
 8000dd8:	f105 0158 	add.w	r1, r5, #88	; 0x58
 8000ddc:	3301      	adds	r3, #1
 8000dde:	9104      	str	r1, [sp, #16]
 8000de0:	f000 8090 	beq.w	8000f04 <__gnu_unwind_pr_common+0x288>
 8000de4:	1d20      	adds	r0, r4, #4
 8000de6:	f7ff fdc9 	bl	800097c <_Unwind_decode_typeinfo_ptr.isra.0>
 8000dea:	ab04      	add	r3, sp, #16
 8000dec:	4601      	mov	r1, r0
 8000dee:	4628      	mov	r0, r5
 8000df0:	f003 f83c 	bl	8003e6c <__cxa_type_match>
 8000df4:	2800      	cmp	r0, #0
 8000df6:	d15b      	bne.n	8000eb0 <__gnu_unwind_pr_common+0x234>
 8000df8:	3408      	adds	r4, #8
 8000dfa:	e7a3      	b.n	8000d44 <__gnu_unwind_pr_common+0xc8>
 8000dfc:	210d      	movs	r1, #13
 8000dfe:	4638      	mov	r0, r7
 8000e00:	f8d5 9020 	ldr.w	r9, [r5, #32]
 8000e04:	f7ff fece 	bl	8000ba4 <_Unwind_GetGR>
 8000e08:	4581      	cmp	r9, r0
 8000e0a:	d1f5      	bne.n	8000df8 <__gnu_unwind_pr_common+0x17c>
 8000e0c:	6aab      	ldr	r3, [r5, #40]	; 0x28
 8000e0e:	429c      	cmp	r4, r3
 8000e10:	d1f2      	bne.n	8000df8 <__gnu_unwind_pr_common+0x17c>
 8000e12:	4620      	mov	r0, r4
 8000e14:	f7ff fcec 	bl	80007f0 <selfrel_offset31>
 8000e18:	210f      	movs	r1, #15
 8000e1a:	4602      	mov	r2, r0
 8000e1c:	4638      	mov	r0, r7
 8000e1e:	f7ff fee5 	bl	8000bec <_Unwind_SetGR>
 8000e22:	4638      	mov	r0, r7
 8000e24:	462a      	mov	r2, r5
 8000e26:	2100      	movs	r1, #0
 8000e28:	f7ff fee0 	bl	8000bec <_Unwind_SetGR>
 8000e2c:	2007      	movs	r0, #7
 8000e2e:	e750      	b.n	8000cd2 <__gnu_unwind_pr_common+0x56>
 8000e30:	210d      	movs	r1, #13
 8000e32:	4638      	mov	r0, r7
 8000e34:	f8d5 9020 	ldr.w	r9, [r5, #32]
 8000e38:	f7ff feb4 	bl	8000ba4 <_Unwind_GetGR>
 8000e3c:	4581      	cmp	r9, r0
 8000e3e:	d001      	beq.n	8000e44 <__gnu_unwind_pr_common+0x1c8>
 8000e40:	6823      	ldr	r3, [r4, #0]
 8000e42:	e7b6      	b.n	8000db2 <__gnu_unwind_pr_common+0x136>
 8000e44:	6aab      	ldr	r3, [r5, #40]	; 0x28
 8000e46:	429c      	cmp	r4, r3
 8000e48:	d1fa      	bne.n	8000e40 <__gnu_unwind_pr_common+0x1c4>
 8000e4a:	2204      	movs	r2, #4
 8000e4c:	2100      	movs	r1, #0
 8000e4e:	e9c5 120b 	strd	r1, r2, [r5, #44]	; 0x2c
 8000e52:	18a3      	adds	r3, r4, r2
 8000e54:	f8c5 b028 	str.w	fp, [r5, #40]	; 0x28
 8000e58:	636b      	str	r3, [r5, #52]	; 0x34
 8000e5a:	6823      	ldr	r3, [r4, #0]
 8000e5c:	428b      	cmp	r3, r1
 8000e5e:	db59      	blt.n	8000f14 <__gnu_unwind_pr_common+0x298>
 8000e60:	2301      	movs	r3, #1
 8000e62:	9301      	str	r3, [sp, #4]
 8000e64:	e7a8      	b.n	8000db8 <__gnu_unwind_pr_common+0x13c>
 8000e66:	f105 0358 	add.w	r3, r5, #88	; 0x58
 8000e6a:	f8cd 800c 	str.w	r8, [sp, #12]
 8000e6e:	f104 0a04 	add.w	sl, r4, #4
 8000e72:	46b0      	mov	r8, r6
 8000e74:	4691      	mov	r9, r2
 8000e76:	461e      	mov	r6, r3
 8000e78:	e00d      	b.n	8000e96 <__gnu_unwind_pr_common+0x21a>
 8000e7a:	9604      	str	r6, [sp, #16]
 8000e7c:	f7ff fd7e 	bl	800097c <_Unwind_decode_typeinfo_ptr.isra.0>
 8000e80:	ab04      	add	r3, sp, #16
 8000e82:	4601      	mov	r1, r0
 8000e84:	2200      	movs	r2, #0
 8000e86:	4628      	mov	r0, r5
 8000e88:	f002 fff0 	bl	8003e6c <__cxa_type_match>
 8000e8c:	f109 0901 	add.w	r9, r9, #1
 8000e90:	f10a 0a04 	add.w	sl, sl, #4
 8000e94:	b9e8      	cbnz	r0, 8000ed2 <__gnu_unwind_pr_common+0x256>
 8000e96:	45d9      	cmp	r9, fp
 8000e98:	4650      	mov	r0, sl
 8000e9a:	d1ee      	bne.n	8000e7a <__gnu_unwind_pr_common+0x1fe>
 8000e9c:	4638      	mov	r0, r7
 8000e9e:	210d      	movs	r1, #13
 8000ea0:	f7ff fe80 	bl	8000ba4 <_Unwind_GetGR>
 8000ea4:	9b04      	ldr	r3, [sp, #16]
 8000ea6:	6228      	str	r0, [r5, #32]
 8000ea8:	e9c5 3409 	strd	r3, r4, [r5, #36]	; 0x24
 8000eac:	2006      	movs	r0, #6
 8000eae:	e710      	b.n	8000cd2 <__gnu_unwind_pr_common+0x56>
 8000eb0:	4681      	mov	r9, r0
 8000eb2:	210d      	movs	r1, #13
 8000eb4:	4638      	mov	r0, r7
 8000eb6:	f7ff fe75 	bl	8000ba4 <_Unwind_GetGR>
 8000eba:	f1b9 0f02 	cmp.w	r9, #2
 8000ebe:	6228      	str	r0, [r5, #32]
 8000ec0:	d125      	bne.n	8000f0e <__gnu_unwind_pr_common+0x292>
 8000ec2:	462b      	mov	r3, r5
 8000ec4:	9a04      	ldr	r2, [sp, #16]
 8000ec6:	f843 2f2c 	str.w	r2, [r3, #44]!
 8000eca:	626b      	str	r3, [r5, #36]	; 0x24
 8000ecc:	62ac      	str	r4, [r5, #40]	; 0x28
 8000ece:	2006      	movs	r0, #6
 8000ed0:	e6ff      	b.n	8000cd2 <__gnu_unwind_pr_common+0x56>
 8000ed2:	4646      	mov	r6, r8
 8000ed4:	6823      	ldr	r3, [r4, #0]
 8000ed6:	f8dd 800c 	ldr.w	r8, [sp, #12]
 8000eda:	e76a      	b.n	8000db2 <__gnu_unwind_pr_common+0x136>
 8000edc:	4620      	mov	r0, r4
 8000ede:	f7ff fc87 	bl	80007f0 <selfrel_offset31>
 8000ee2:	3404      	adds	r4, #4
 8000ee4:	4602      	mov	r2, r0
 8000ee6:	63ac      	str	r4, [r5, #56]	; 0x38
 8000ee8:	4628      	mov	r0, r5
 8000eea:	4614      	mov	r4, r2
 8000eec:	f003 f81c 	bl	8003f28 <__cxa_begin_cleanup>
 8000ef0:	2800      	cmp	r0, #0
 8000ef2:	f43f aeed 	beq.w	8000cd0 <__gnu_unwind_pr_common+0x54>
 8000ef6:	4638      	mov	r0, r7
 8000ef8:	4622      	mov	r2, r4
 8000efa:	210f      	movs	r1, #15
 8000efc:	f7ff fe76 	bl	8000bec <_Unwind_SetGR>
 8000f00:	2007      	movs	r0, #7
 8000f02:	e6e6      	b.n	8000cd2 <__gnu_unwind_pr_common+0x56>
 8000f04:	4638      	mov	r0, r7
 8000f06:	210d      	movs	r1, #13
 8000f08:	f7ff fe4c 	bl	8000ba4 <_Unwind_GetGR>
 8000f0c:	6228      	str	r0, [r5, #32]
 8000f0e:	9b04      	ldr	r3, [sp, #16]
 8000f10:	626b      	str	r3, [r5, #36]	; 0x24
 8000f12:	e7db      	b.n	8000ecc <__gnu_unwind_pr_common+0x250>
 8000f14:	f10b 0001 	add.w	r0, fp, #1
 8000f18:	eb04 0080 	add.w	r0, r4, r0, lsl #2
 8000f1c:	e77a      	b.n	8000e14 <__gnu_unwind_pr_common+0x198>
 8000f1e:	bf00      	nop
 8000f20:	0800477d 	.word	0x0800477d

08000f24 <__aeabi_unwind_cpp_pr0>:
 8000f24:	2300      	movs	r3, #0
 8000f26:	e6a9      	b.n	8000c7c <__gnu_unwind_pr_common>

08000f28 <__aeabi_unwind_cpp_pr1>:
 8000f28:	2301      	movs	r3, #1
 8000f2a:	e6a7      	b.n	8000c7c <__gnu_unwind_pr_common>

08000f2c <__aeabi_unwind_cpp_pr2>:
 8000f2c:	2302      	movs	r3, #2
 8000f2e:	e6a5      	b.n	8000c7c <__gnu_unwind_pr_common>

08000f30 <_Unwind_VRS_Pop>:
 8000f30:	e92d 43f0 	stmdb	sp!, {r4, r5, r6, r7, r8, r9, lr}
 8000f34:	4606      	mov	r6, r0
 8000f36:	b0c3      	sub	sp, #268	; 0x10c
 8000f38:	4615      	mov	r5, r2
 8000f3a:	461c      	mov	r4, r3
 8000f3c:	2904      	cmp	r1, #4
 8000f3e:	f200 80b9 	bhi.w	80010b4 <_Unwind_VRS_Pop+0x184>
 8000f42:	e8df f001 	tbb	[pc, r1]
 8000f46:	539a      	.short	0x539a
 8000f48:	29b7      	.short	0x29b7
 8000f4a:	03          	.byte	0x03
 8000f4b:	00          	.byte	0x00
 8000f4c:	2c00      	cmp	r4, #0
 8000f4e:	f040 80b1 	bne.w	80010b4 <_Unwind_VRS_Pop+0x184>
 8000f52:	2a10      	cmp	r2, #16
 8000f54:	f200 80ae 	bhi.w	80010b4 <_Unwind_VRS_Pop+0x184>
 8000f58:	6803      	ldr	r3, [r0, #0]
 8000f5a:	06d8      	lsls	r0, r3, #27
 8000f5c:	f100 80f3 	bmi.w	8001146 <_Unwind_VRS_Pop+0x216>
 8000f60:	af20      	add	r7, sp, #128	; 0x80
 8000f62:	4638      	mov	r0, r7
 8000f64:	f000 f992 	bl	800128c <__gnu_Unwind_Save_WMMXC>
 8000f68:	6bb0      	ldr	r0, [r6, #56]	; 0x38
 8000f6a:	2300      	movs	r3, #0
 8000f6c:	2401      	movs	r4, #1
 8000f6e:	fa04 f203 	lsl.w	r2, r4, r3
 8000f72:	422a      	tst	r2, r5
 8000f74:	4601      	mov	r1, r0
 8000f76:	d004      	beq.n	8000f82 <_Unwind_VRS_Pop+0x52>
 8000f78:	f851 2b04 	ldr.w	r2, [r1], #4
 8000f7c:	f847 2023 	str.w	r2, [r7, r3, lsl #2]
 8000f80:	4608      	mov	r0, r1
 8000f82:	3301      	adds	r3, #1
 8000f84:	2b04      	cmp	r3, #4
 8000f86:	d1f2      	bne.n	8000f6e <_Unwind_VRS_Pop+0x3e>
 8000f88:	63b0      	str	r0, [r6, #56]	; 0x38
 8000f8a:	4638      	mov	r0, r7
 8000f8c:	f000 f974 	bl	8001278 <__gnu_Unwind_Restore_WMMXC>
 8000f90:	2000      	movs	r0, #0
 8000f92:	b043      	add	sp, #268	; 0x10c
 8000f94:	e8bd 83f0 	ldmia.w	sp!, {r4, r5, r6, r7, r8, r9, pc}
 8000f98:	2c03      	cmp	r4, #3
 8000f9a:	f040 808b 	bne.w	80010b4 <_Unwind_VRS_Pop+0x184>
 8000f9e:	b294      	uxth	r4, r2
 8000fa0:	eb04 4312 	add.w	r3, r4, r2, lsr #16
 8000fa4:	2b10      	cmp	r3, #16
 8000fa6:	ea4f 4512 	mov.w	r5, r2, lsr #16
 8000faa:	f200 8083 	bhi.w	80010b4 <_Unwind_VRS_Pop+0x184>
 8000fae:	6803      	ldr	r3, [r0, #0]
 8000fb0:	071f      	lsls	r7, r3, #28
 8000fb2:	f100 80d0 	bmi.w	8001156 <_Unwind_VRS_Pop+0x226>
 8000fb6:	af20      	add	r7, sp, #128	; 0x80
 8000fb8:	4638      	mov	r0, r7
 8000fba:	f000 f93b 	bl	8001234 <__gnu_Unwind_Save_WMMXD>
 8000fbe:	eb07 01c5 	add.w	r1, r7, r5, lsl #3
 8000fc2:	6bb5      	ldr	r5, [r6, #56]	; 0x38
 8000fc4:	b154      	cbz	r4, 8000fdc <_Unwind_VRS_Pop+0xac>
 8000fc6:	460b      	mov	r3, r1
 8000fc8:	1ae8      	subs	r0, r5, r3
 8000fca:	eb01 01c4 	add.w	r1, r1, r4, lsl #3
 8000fce:	00e4      	lsls	r4, r4, #3
 8000fd0:	581a      	ldr	r2, [r3, r0]
 8000fd2:	f843 2b04 	str.w	r2, [r3], #4
 8000fd6:	428b      	cmp	r3, r1
 8000fd8:	d1fa      	bne.n	8000fd0 <_Unwind_VRS_Pop+0xa0>
 8000fda:	4425      	add	r5, r4
 8000fdc:	4638      	mov	r0, r7
 8000fde:	63b5      	str	r5, [r6, #56]	; 0x38
 8000fe0:	f000 f906 	bl	80011f0 <__gnu_Unwind_Restore_WMMXD>
 8000fe4:	2000      	movs	r0, #0
 8000fe6:	b043      	add	sp, #268	; 0x10c
 8000fe8:	e8bd 83f0 	ldmia.w	sp!, {r4, r5, r6, r7, r8, r9, pc}
 8000fec:	2c01      	cmp	r4, #1
 8000fee:	ea4f 4812 	mov.w	r8, r2, lsr #16
 8000ff2:	b295      	uxth	r5, r2
 8000ff4:	d05a      	beq.n	80010ac <_Unwind_VRS_Pop+0x17c>
 8000ff6:	2c05      	cmp	r4, #5
 8000ff8:	d15c      	bne.n	80010b4 <_Unwind_VRS_Pop+0x184>
 8000ffa:	eb08 0905 	add.w	r9, r8, r5
 8000ffe:	f1b9 0f20 	cmp.w	r9, #32
 8001002:	d857      	bhi.n	80010b4 <_Unwind_VRS_Pop+0x184>
 8001004:	f1b8 0f0f 	cmp.w	r8, #15
 8001008:	d977      	bls.n	80010fa <_Unwind_VRS_Pop+0x1ca>
 800100a:	46a9      	mov	r9, r5
 800100c:	2d00      	cmp	r5, #0
 800100e:	f040 8088 	bne.w	8001122 <_Unwind_VRS_Pop+0x1f2>
 8001012:	6bb3      	ldr	r3, [r6, #56]	; 0x38
 8001014:	b36d      	cbz	r5, 8001072 <_Unwind_VRS_Pop+0x142>
 8001016:	af20      	add	r7, sp, #128	; 0x80
 8001018:	f04f 0900 	mov.w	r9, #0
 800101c:	eb07 07c8 	add.w	r7, r7, r8, lsl #3
 8001020:	3f04      	subs	r7, #4
 8001022:	eb03 05c5 	add.w	r5, r3, r5, lsl #3
 8001026:	f853 1b04 	ldr.w	r1, [r3], #4
 800102a:	f847 1f04 	str.w	r1, [r7, #4]!
 800102e:	42ab      	cmp	r3, r5
 8001030:	d1f9      	bne.n	8001026 <_Unwind_VRS_Pop+0xf6>
 8001032:	f1b9 0f00 	cmp.w	r9, #0
 8001036:	d00f      	beq.n	8001058 <_Unwind_VRS_Pop+0x128>
 8001038:	466f      	mov	r7, sp
 800103a:	4641      	mov	r1, r8
 800103c:	2910      	cmp	r1, #16
 800103e:	bf38      	it	cc
 8001040:	2110      	movcc	r1, #16
 8001042:	eb07 01c1 	add.w	r1, r7, r1, lsl #3
 8001046:	3984      	subs	r1, #132	; 0x84
 8001048:	eb03 05c9 	add.w	r5, r3, r9, lsl #3
 800104c:	f853 0b04 	ldr.w	r0, [r3], #4
 8001050:	f841 0f04 	str.w	r0, [r1, #4]!
 8001054:	42ab      	cmp	r3, r5
 8001056:	d1f9      	bne.n	800104c <_Unwind_VRS_Pop+0x11c>
 8001058:	2c01      	cmp	r4, #1
 800105a:	f000 8084 	beq.w	8001166 <_Unwind_VRS_Pop+0x236>
 800105e:	f1b8 0f0f 	cmp.w	r8, #15
 8001062:	63b5      	str	r5, [r6, #56]	; 0x38
 8001064:	d945      	bls.n	80010f2 <_Unwind_VRS_Pop+0x1c2>
 8001066:	f1b9 0f00 	cmp.w	r9, #0
 800106a:	d002      	beq.n	8001072 <_Unwind_VRS_Pop+0x142>
 800106c:	4668      	mov	r0, sp
 800106e:	f000 f8b7 	bl	80011e0 <__gnu_Unwind_Restore_VFP_D_16_to_31>
 8001072:	2000      	movs	r0, #0
 8001074:	b043      	add	sp, #268	; 0x10c
 8001076:	e8bd 83f0 	ldmia.w	sp!, {r4, r5, r6, r7, r8, r9, pc}
 800107a:	b9dc      	cbnz	r4, 80010b4 <_Unwind_VRS_Pop+0x184>
 800107c:	6b87      	ldr	r7, [r0, #56]	; 0x38
 800107e:	4623      	mov	r3, r4
 8001080:	2001      	movs	r0, #1
 8001082:	b294      	uxth	r4, r2
 8001084:	f106 0c04 	add.w	ip, r6, #4
 8001088:	fa00 f203 	lsl.w	r2, r0, r3
 800108c:	4222      	tst	r2, r4
 800108e:	4639      	mov	r1, r7
 8001090:	d004      	beq.n	800109c <_Unwind_VRS_Pop+0x16c>
 8001092:	f851 2b04 	ldr.w	r2, [r1], #4
 8001096:	f84c 2023 	str.w	r2, [ip, r3, lsl #2]
 800109a:	460f      	mov	r7, r1
 800109c:	3301      	adds	r3, #1
 800109e:	2b10      	cmp	r3, #16
 80010a0:	d1f2      	bne.n	8001088 <_Unwind_VRS_Pop+0x158>
 80010a2:	f415 5000 	ands.w	r0, r5, #8192	; 0x2000
 80010a6:	d1e4      	bne.n	8001072 <_Unwind_VRS_Pop+0x142>
 80010a8:	63b7      	str	r7, [r6, #56]	; 0x38
 80010aa:	e004      	b.n	80010b6 <_Unwind_VRS_Pop+0x186>
 80010ac:	eb08 0305 	add.w	r3, r8, r5
 80010b0:	2b10      	cmp	r3, #16
 80010b2:	d903      	bls.n	80010bc <_Unwind_VRS_Pop+0x18c>
 80010b4:	2002      	movs	r0, #2
 80010b6:	b043      	add	sp, #268	; 0x10c
 80010b8:	e8bd 83f0 	ldmia.w	sp!, {r4, r5, r6, r7, r8, r9, pc}
 80010bc:	f1b8 0f0f 	cmp.w	r8, #15
 80010c0:	d8f8      	bhi.n	80010b4 <_Unwind_VRS_Pop+0x184>
 80010c2:	6833      	ldr	r3, [r6, #0]
 80010c4:	07da      	lsls	r2, r3, #31
 80010c6:	d506      	bpl.n	80010d6 <_Unwind_VRS_Pop+0x1a6>
 80010c8:	4630      	mov	r0, r6
 80010ca:	f023 0303 	bic.w	r3, r3, #3
 80010ce:	f840 3b48 	str.w	r3, [r0], #72
 80010d2:	f000 f879 	bl	80011c8 <__gnu_Unwind_Save_VFP>
 80010d6:	af20      	add	r7, sp, #128	; 0x80
 80010d8:	4638      	mov	r0, r7
 80010da:	f000 f875 	bl	80011c8 <__gnu_Unwind_Save_VFP>
 80010de:	6bb3      	ldr	r3, [r6, #56]	; 0x38
 80010e0:	2d00      	cmp	r5, #0
 80010e2:	d199      	bne.n	8001018 <_Unwind_VRS_Pop+0xe8>
 80010e4:	461d      	mov	r5, r3
 80010e6:	3504      	adds	r5, #4
 80010e8:	63b5      	str	r5, [r6, #56]	; 0x38
 80010ea:	4638      	mov	r0, r7
 80010ec:	f000 f868 	bl	80011c0 <__gnu_Unwind_Restore_VFP>
 80010f0:	e7bf      	b.n	8001072 <_Unwind_VRS_Pop+0x142>
 80010f2:	a820      	add	r0, sp, #128	; 0x80
 80010f4:	f000 f86c 	bl	80011d0 <__gnu_Unwind_Restore_VFP_D>
 80010f8:	e7b5      	b.n	8001066 <_Unwind_VRS_Pop+0x136>
 80010fa:	f1b9 0f10 	cmp.w	r9, #16
 80010fe:	d940      	bls.n	8001182 <_Unwind_VRS_Pop+0x252>
 8001100:	f1a9 0910 	sub.w	r9, r9, #16
 8001104:	6833      	ldr	r3, [r6, #0]
 8001106:	07d9      	lsls	r1, r3, #31
 8001108:	d508      	bpl.n	800111c <_Unwind_VRS_Pop+0x1ec>
 800110a:	f023 0301 	bic.w	r3, r3, #1
 800110e:	4630      	mov	r0, r6
 8001110:	f043 0302 	orr.w	r3, r3, #2
 8001114:	f840 3b48 	str.w	r3, [r0], #72
 8001118:	f000 f85e 	bl	80011d8 <__gnu_Unwind_Save_VFP_D>
 800111c:	f1b9 0f00 	cmp.w	r9, #0
 8001120:	d032      	beq.n	8001188 <_Unwind_VRS_Pop+0x258>
 8001122:	6833      	ldr	r3, [r6, #0]
 8001124:	075a      	lsls	r2, r3, #29
 8001126:	d420      	bmi.n	800116a <_Unwind_VRS_Pop+0x23a>
 8001128:	f1b8 0f0f 	cmp.w	r8, #15
 800112c:	d925      	bls.n	800117a <_Unwind_VRS_Pop+0x24a>
 800112e:	466f      	mov	r7, sp
 8001130:	4638      	mov	r0, r7
 8001132:	f1c8 0510 	rsb	r5, r8, #16
 8001136:	f000 f857 	bl	80011e8 <__gnu_Unwind_Save_VFP_D_16_to_31>
 800113a:	2d00      	cmp	r5, #0
 800113c:	6bb3      	ldr	r3, [r6, #56]	; 0x38
 800113e:	f77f af7c 	ble.w	800103a <_Unwind_VRS_Pop+0x10a>
 8001142:	af20      	add	r7, sp, #128	; 0x80
 8001144:	e76a      	b.n	800101c <_Unwind_VRS_Pop+0xec>
 8001146:	f023 0310 	bic.w	r3, r3, #16
 800114a:	6033      	str	r3, [r6, #0]
 800114c:	f506 70e8 	add.w	r0, r6, #464	; 0x1d0
 8001150:	f000 f89c 	bl	800128c <__gnu_Unwind_Save_WMMXC>
 8001154:	e704      	b.n	8000f60 <_Unwind_VRS_Pop+0x30>
 8001156:	f023 0308 	bic.w	r3, r3, #8
 800115a:	6003      	str	r3, [r0, #0]
 800115c:	f500 70a8 	add.w	r0, r0, #336	; 0x150
 8001160:	f000 f868 	bl	8001234 <__gnu_Unwind_Save_WMMXD>
 8001164:	e727      	b.n	8000fb6 <_Unwind_VRS_Pop+0x86>
 8001166:	af20      	add	r7, sp, #128	; 0x80
 8001168:	e7bd      	b.n	80010e6 <_Unwind_VRS_Pop+0x1b6>
 800116a:	4630      	mov	r0, r6
 800116c:	f023 0304 	bic.w	r3, r3, #4
 8001170:	f840 3bd0 	str.w	r3, [r0], #208
 8001174:	f000 f838 	bl	80011e8 <__gnu_Unwind_Save_VFP_D_16_to_31>
 8001178:	e7d6      	b.n	8001128 <_Unwind_VRS_Pop+0x1f8>
 800117a:	a820      	add	r0, sp, #128	; 0x80
 800117c:	f000 f82c 	bl	80011d8 <__gnu_Unwind_Save_VFP_D>
 8001180:	e7d5      	b.n	800112e <_Unwind_VRS_Pop+0x1fe>
 8001182:	f04f 0900 	mov.w	r9, #0
 8001186:	e7bd      	b.n	8001104 <_Unwind_VRS_Pop+0x1d4>
 8001188:	f1b8 0f0f 	cmp.w	r8, #15
 800118c:	f63f af41 	bhi.w	8001012 <_Unwind_VRS_Pop+0xe2>
 8001190:	af20      	add	r7, sp, #128	; 0x80
 8001192:	4638      	mov	r0, r7
 8001194:	f000 f820 	bl	80011d8 <__gnu_Unwind_Save_VFP_D>
 8001198:	6bb3      	ldr	r3, [r6, #56]	; 0x38
 800119a:	2d00      	cmp	r5, #0
 800119c:	f47f af3c 	bne.w	8001018 <_Unwind_VRS_Pop+0xe8>
 80011a0:	4638      	mov	r0, r7
 80011a2:	f000 f815 	bl	80011d0 <__gnu_Unwind_Restore_VFP_D>
 80011a6:	e764      	b.n	8001072 <_Unwind_VRS_Pop+0x142>

080011a8 <__restore_core_regs>:
 80011a8:	f100 0134 	add.w	r1, r0, #52	; 0x34
 80011ac:	e891 0038 	ldmia.w	r1, {r3, r4, r5}
 80011b0:	469c      	mov	ip, r3
 80011b2:	46a6      	mov	lr, r4
 80011b4:	f84c 5d04 	str.w	r5, [ip, #-4]!
 80011b8:	e890 0fff 	ldmia.w	r0, {r0, r1, r2, r3, r4, r5, r6, r7, r8, r9, sl, fp}
 80011bc:	46e5      	mov	sp, ip
 80011be:	bd00      	pop	{pc}

080011c0 <__gnu_Unwind_Restore_VFP>:
 80011c0:	ec90 0b21 	fldmiax	r0, {d0-d15}	;@ Deprecated
 80011c4:	4770      	bx	lr
 80011c6:	bf00      	nop

080011c8 <__gnu_Unwind_Save_VFP>:
 80011c8:	ec80 0b21 	fstmiax	r0, {d0-d15}	;@ Deprecated
 80011cc:	4770      	bx	lr
 80011ce:	bf00      	nop

080011d0 <__gnu_Unwind_Restore_VFP_D>:
 80011d0:	ec90 0b20 	vldmia	r0, {d0-d15}
 80011d4:	4770      	bx	lr
 80011d6:	bf00      	nop

080011d8 <__gnu_Unwind_Save_VFP_D>:
 80011d8:	ec80 0b20 	vstmia	r0, {d0-d15}
 80011dc:	4770      	bx	lr
 80011de:	bf00      	nop

080011e0 <__gnu_Unwind_Restore_VFP_D_16_to_31>:
 80011e0:	ecd0 0b20 	vldmia	r0, {d16-d31}
 80011e4:	4770      	bx	lr
 80011e6:	bf00      	nop

080011e8 <__gnu_Unwind_Save_VFP_D_16_to_31>:
 80011e8:	ecc0 0b20 	vstmia	r0, {d16-d31}
 80011ec:	4770      	bx	lr
 80011ee:	bf00      	nop

080011f0 <__gnu_Unwind_Restore_WMMXD>:
 80011f0:	ecf0 0102 	ldfe	f0, [r0], #8
 80011f4:	ecf0 1102 	ldfe	f1, [r0], #8
 80011f8:	ecf0 2102 	ldfe	f2, [r0], #8
 80011fc:	ecf0 3102 	ldfe	f3, [r0], #8
 8001200:	ecf0 4102 	ldfe	f4, [r0], #8
 8001204:	ecf0 5102 	ldfe	f5, [r0], #8
 8001208:	ecf0 6102 	ldfe	f6, [r0], #8
 800120c:	ecf0 7102 	ldfe	f7, [r0], #8
 8001210:	ecf0 8102 	ldfp	f0, [r0], #8
 8001214:	ecf0 9102 	ldfp	f1, [r0], #8
 8001218:	ecf0 a102 	ldfp	f2, [r0], #8
 800121c:	ecf0 b102 	ldfp	f3, [r0], #8
 8001220:	ecf0 c102 	ldfp	f4, [r0], #8
 8001224:	ecf0 d102 	ldfp	f5, [r0], #8
 8001228:	ecf0 e102 	ldfp	f6, [r0], #8
 800122c:	ecf0 f102 	ldfp	f7, [r0], #8
 8001230:	4770      	bx	lr
 8001232:	bf00      	nop

08001234 <__gnu_Unwind_Save_WMMXD>:
 8001234:	ece0 0102 	stfe	f0, [r0], #8
 8001238:	ece0 1102 	stfe	f1, [r0], #8
 800123c:	ece0 2102 	stfe	f2, [r0], #8
 8001240:	ece0 3102 	stfe	f3, [r0], #8
 8001244:	ece0 4102 	stfe	f4, [r0], #8
 8001248:	ece0 5102 	stfe	f5, [r0], #8
 800124c:	ece0 6102 	stfe	f6, [r0], #8
 8001250:	ece0 7102 	stfe	f7, [r0], #8
 8001254:	ece0 8102 	stfp	f0, [r0], #8
 8001258:	ece0 9102 	stfp	f1, [r0], #8
 800125c:	ece0 a102 	stfp	f2, [r0], #8
 8001260:	ece0 b102 	stfp	f3, [r0], #8
 8001264:	ece0 c102 	stfp	f4, [r0], #8
 8001268:	ece0 d102 	stfp	f5, [r0], #8
 800126c:	ece0 e102 	stfp	f6, [r0], #8
 8001270:	ece0 f102 	stfp	f7, [r0], #8
 8001274:	4770      	bx	lr
 8001276:	bf00      	nop

08001278 <__gnu_Unwind_Restore_WMMXC>:
 8001278:	fcb0 8101 	ldc2	1, cr8, [r0], #4
 800127c:	fcb0 9101 	ldc2	1, cr9, [r0], #4
 8001280:	fcb0 a101 	ldc2	1, cr10, [r0], #4
 8001284:	fcb0 b101 	ldc2	1, cr11, [r0], #4
 8001288:	4770      	bx	lr
 800128a:	bf00      	nop

0800128c <__gnu_Unwind_Save_WMMXC>:
 800128c:	fca0 8101 	stc2	1, cr8, [r0], #4
 8001290:	fca0 9101 	stc2	1, cr9, [r0], #4
 8001294:	fca0 a101 	stc2	1, cr10, [r0], #4
 8001298:	fca0 b101 	stc2	1, cr11, [r0], #4
 800129c:	4770      	bx	lr
 800129e:	bf00      	nop

080012a0 <_Unwind_RaiseException>:
 80012a0:	46ec      	mov	ip, sp
 80012a2:	b500      	push	{lr}
 80012a4:	e92d 5000 	stmdb	sp!, {ip, lr}
 80012a8:	e92d 1fff 	stmdb	sp!, {r0, r1, r2, r3, r4, r5, r6, r7, r8, r9, sl, fp, ip}
 80012ac:	f04f 0300 	mov.w	r3, #0
 80012b0:	e92d 000c 	stmdb	sp!, {r2, r3}
 80012b4:	a901      	add	r1, sp, #4
 80012b6:	f7ff fbf1 	bl	8000a9c <__gnu_Unwind_RaiseException>
 80012ba:	f8dd e040 	ldr.w	lr, [sp, #64]	; 0x40
 80012be:	b012      	add	sp, #72	; 0x48
 80012c0:	4770      	bx	lr
 80012c2:	bf00      	nop

080012c4 <_Unwind_Resume>:
 80012c4:	46ec      	mov	ip, sp
 80012c6:	b500      	push	{lr}
 80012c8:	e92d 5000 	stmdb	sp!, {ip, lr}
 80012cc:	e92d 1fff 	stmdb	sp!, {r0, r1, r2, r3, r4, r5, r6, r7, r8, r9, sl, fp, ip}
 80012d0:	f04f 0300 	mov.w	r3, #0
 80012d4:	e92d 000c 	stmdb	sp!, {r2, r3}
 80012d8:	a901      	add	r1, sp, #4
 80012da:	f7ff fc19 	bl	8000b10 <__gnu_Unwind_Resume>
 80012de:	f8dd e040 	ldr.w	lr, [sp, #64]	; 0x40
 80012e2:	b012      	add	sp, #72	; 0x48
 80012e4:	4770      	bx	lr
 80012e6:	bf00      	nop

080012e8 <_Unwind_Resume_or_Rethrow>:
 80012e8:	46ec      	mov	ip, sp
 80012ea:	b500      	push	{lr}
 80012ec:	e92d 5000 	stmdb	sp!, {ip, lr}
 80012f0:	e92d 1fff 	stmdb	sp!, {r0, r1, r2, r3, r4, r5, r6, r7, r8, r9, sl, fp, ip}
 80012f4:	f04f 0300 	mov.w	r3, #0
 80012f8:	e92d 000c 	stmdb	sp!, {r2, r3}
 80012fc:	a901      	add	r1, sp, #4
 80012fe:	f7ff fc29 	bl	8000b54 <__gnu_Unwind_Resume_or_Rethrow>
 8001302:	f8dd e040 	ldr.w	lr, [sp, #64]	; 0x40
 8001306:	b012      	add	sp, #72	; 0x48
 8001308:	4770      	bx	lr
 800130a:	bf00      	nop

0800130c <_Unwind_ForcedUnwind>:
 800130c:	46ec      	mov	ip, sp
 800130e:	b500      	push	{lr}
 8001310:	e92d 5000 	stmdb	sp!, {ip, lr}
 8001314:	e92d 1fff 	stmdb	sp!, {r0, r1, r2, r3, r4, r5, r6, r7, r8, r9, sl, fp, ip}
 8001318:	f04f 0300 	mov.w	r3, #0
 800131c:	e92d 000c 	stmdb	sp!, {r2, r3}
 8001320:	ab01      	add	r3, sp, #4
 8001322:	f7ff fbeb 	bl	8000afc <__gnu_Unwind_ForcedUnwind>
 8001326:	f8dd e040 	ldr.w	lr, [sp, #64]	; 0x40
 800132a:	b012      	add	sp, #72	; 0x48
 800132c:	4770      	bx	lr
 800132e:	bf00      	nop

08001330 <_Unwind_Backtrace>:
 8001330:	46ec      	mov	ip, sp
 8001332:	b500      	push	{lr}
 8001334:	e92d 5000 	stmdb	sp!, {ip, lr}
 8001338:	e92d 1fff 	stmdb	sp!, {r0, r1, r2, r3, r4, r5, r6, r7, r8, r9, sl, fp, ip}
 800133c:	f04f 0300 	mov.w	r3, #0
 8001340:	e92d 000c 	stmdb	sp!, {r2, r3}
 8001344:	aa01      	add	r2, sp, #4
 8001346:	f7ff fc5d 	bl	8000c04 <__gnu_Unwind_Backtrace>
 800134a:	f8dd e040 	ldr.w	lr, [sp, #64]	; 0x40
 800134e:	b012      	add	sp, #72	; 0x48
 8001350:	4770      	bx	lr
 8001352:	bf00      	nop

08001354 <next_unwind_byte>:
 8001354:	7a02      	ldrb	r2, [r0, #8]
 8001356:	b97a      	cbnz	r2, 8001378 <next_unwind_byte+0x24>
 8001358:	7a43      	ldrb	r3, [r0, #9]
 800135a:	b1a3      	cbz	r3, 8001386 <next_unwind_byte+0x32>
 800135c:	6842      	ldr	r2, [r0, #4]
 800135e:	3b01      	subs	r3, #1
 8001360:	b410      	push	{r4}
 8001362:	7243      	strb	r3, [r0, #9]
 8001364:	6813      	ldr	r3, [r2, #0]
 8001366:	2103      	movs	r1, #3
 8001368:	1d14      	adds	r4, r2, #4
 800136a:	7201      	strb	r1, [r0, #8]
 800136c:	021a      	lsls	r2, r3, #8
 800136e:	6044      	str	r4, [r0, #4]
 8001370:	6002      	str	r2, [r0, #0]
 8001372:	bc10      	pop	{r4}
 8001374:	0e18      	lsrs	r0, r3, #24
 8001376:	4770      	bx	lr
 8001378:	6803      	ldr	r3, [r0, #0]
 800137a:	3a01      	subs	r2, #1
 800137c:	7202      	strb	r2, [r0, #8]
 800137e:	021a      	lsls	r2, r3, #8
 8001380:	6002      	str	r2, [r0, #0]
 8001382:	0e18      	lsrs	r0, r3, #24
 8001384:	4770      	bx	lr
 8001386:	20b0      	movs	r0, #176	; 0xb0
 8001388:	4770      	bx	lr
 800138a:	bf00      	nop

0800138c <_Unwind_GetGR.constprop.0>:
 800138c:	b500      	push	{lr}
 800138e:	b085      	sub	sp, #20
 8001390:	aa03      	add	r2, sp, #12
 8001392:	2300      	movs	r3, #0
 8001394:	9200      	str	r2, [sp, #0]
 8001396:	4619      	mov	r1, r3
 8001398:	220c      	movs	r2, #12
 800139a:	f7ff fbeb 	bl	8000b74 <_Unwind_VRS_Get>
 800139e:	9803      	ldr	r0, [sp, #12]
 80013a0:	b005      	add	sp, #20
 80013a2:	f85d fb04 	ldr.w	pc, [sp], #4
 80013a6:	bf00      	nop

080013a8 <unwind_UCB_from_context>:
 80013a8:	e7f0      	b.n	800138c <_Unwind_GetGR.constprop.0>
 80013aa:	bf00      	nop

080013ac <__gnu_unwind_execute>:
 80013ac:	e92d 43f0 	stmdb	sp!, {r4, r5, r6, r7, r8, r9, lr}
 80013b0:	4605      	mov	r5, r0
 80013b2:	b085      	sub	sp, #20
 80013b4:	460e      	mov	r6, r1
 80013b6:	f04f 0800 	mov.w	r8, #0
 80013ba:	4630      	mov	r0, r6
 80013bc:	f7ff ffca 	bl	8001354 <next_unwind_byte>
 80013c0:	28b0      	cmp	r0, #176	; 0xb0
 80013c2:	4604      	mov	r4, r0
 80013c4:	f000 80b2 	beq.w	800152c <__gnu_unwind_execute+0x180>
 80013c8:	0607      	lsls	r7, r0, #24
 80013ca:	d520      	bpl.n	800140e <__gnu_unwind_execute+0x62>
 80013cc:	f000 03f0 	and.w	r3, r0, #240	; 0xf0
 80013d0:	2b80      	cmp	r3, #128	; 0x80
 80013d2:	d04d      	beq.n	8001470 <__gnu_unwind_execute+0xc4>
 80013d4:	2b90      	cmp	r3, #144	; 0x90
 80013d6:	d036      	beq.n	8001446 <__gnu_unwind_execute+0x9a>
 80013d8:	2ba0      	cmp	r3, #160	; 0xa0
 80013da:	d060      	beq.n	800149e <__gnu_unwind_execute+0xf2>
 80013dc:	2bb0      	cmp	r3, #176	; 0xb0
 80013de:	d074      	beq.n	80014ca <__gnu_unwind_execute+0x11e>
 80013e0:	2bc0      	cmp	r3, #192	; 0xc0
 80013e2:	f000 808b 	beq.w	80014fc <__gnu_unwind_execute+0x150>
 80013e6:	f000 03f8 	and.w	r3, r0, #248	; 0xf8
 80013ea:	2bd0      	cmp	r3, #208	; 0xd0
 80013ec:	d10b      	bne.n	8001406 <__gnu_unwind_execute+0x5a>
 80013ee:	f000 0207 	and.w	r2, r0, #7
 80013f2:	3201      	adds	r2, #1
 80013f4:	f442 2200 	orr.w	r2, r2, #524288	; 0x80000
 80013f8:	2305      	movs	r3, #5
 80013fa:	2101      	movs	r1, #1
 80013fc:	4628      	mov	r0, r5
 80013fe:	f7ff fd97 	bl	8000f30 <_Unwind_VRS_Pop>
 8001402:	2800      	cmp	r0, #0
 8001404:	d0d9      	beq.n	80013ba <__gnu_unwind_execute+0xe>
 8001406:	2009      	movs	r0, #9
 8001408:	b005      	add	sp, #20
 800140a:	e8bd 83f0 	ldmia.w	sp!, {r4, r5, r6, r7, r8, r9, pc}
 800140e:	f10d 090c 	add.w	r9, sp, #12
 8001412:	2300      	movs	r3, #0
 8001414:	4619      	mov	r1, r3
 8001416:	0087      	lsls	r7, r0, #2
 8001418:	f8cd 9000 	str.w	r9, [sp]
 800141c:	220d      	movs	r2, #13
 800141e:	4628      	mov	r0, r5
 8001420:	f7ff fba8 	bl	8000b74 <_Unwind_VRS_Get>
 8001424:	b2ff      	uxtb	r7, r7
 8001426:	9b03      	ldr	r3, [sp, #12]
 8001428:	f8cd 9000 	str.w	r9, [sp]
 800142c:	3704      	adds	r7, #4
 800142e:	0660      	lsls	r0, r4, #25
 8001430:	bf4c      	ite	mi
 8001432:	1bdf      	submi	r7, r3, r7
 8001434:	18ff      	addpl	r7, r7, r3
 8001436:	2300      	movs	r3, #0
 8001438:	4619      	mov	r1, r3
 800143a:	220d      	movs	r2, #13
 800143c:	4628      	mov	r0, r5
 800143e:	9703      	str	r7, [sp, #12]
 8001440:	f7ff fbbc 	bl	8000bbc <_Unwind_VRS_Set>
 8001444:	e7b9      	b.n	80013ba <__gnu_unwind_execute+0xe>
 8001446:	f000 030d 	and.w	r3, r0, #13
 800144a:	2b0d      	cmp	r3, #13
 800144c:	d0db      	beq.n	8001406 <__gnu_unwind_execute+0x5a>
 800144e:	af03      	add	r7, sp, #12
 8001450:	2300      	movs	r3, #0
 8001452:	f000 020f 	and.w	r2, r0, #15
 8001456:	4619      	mov	r1, r3
 8001458:	9700      	str	r7, [sp, #0]
 800145a:	4628      	mov	r0, r5
 800145c:	f7ff fb8a 	bl	8000b74 <_Unwind_VRS_Get>
 8001460:	2300      	movs	r3, #0
 8001462:	9700      	str	r7, [sp, #0]
 8001464:	4619      	mov	r1, r3
 8001466:	220d      	movs	r2, #13
 8001468:	4628      	mov	r0, r5
 800146a:	f7ff fba7 	bl	8000bbc <_Unwind_VRS_Set>
 800146e:	e7a4      	b.n	80013ba <__gnu_unwind_execute+0xe>
 8001470:	4630      	mov	r0, r6
 8001472:	f7ff ff6f 	bl	8001354 <next_unwind_byte>
 8001476:	0224      	lsls	r4, r4, #8
 8001478:	4320      	orrs	r0, r4
 800147a:	f5b0 4f00 	cmp.w	r0, #32768	; 0x8000
 800147e:	d0c2      	beq.n	8001406 <__gnu_unwind_execute+0x5a>
 8001480:	0104      	lsls	r4, r0, #4
 8001482:	2300      	movs	r3, #0
 8001484:	b2a2      	uxth	r2, r4
 8001486:	4619      	mov	r1, r3
 8001488:	4628      	mov	r0, r5
 800148a:	f7ff fd51 	bl	8000f30 <_Unwind_VRS_Pop>
 800148e:	2800      	cmp	r0, #0
 8001490:	d1b9      	bne.n	8001406 <__gnu_unwind_execute+0x5a>
 8001492:	f414 4f00 	tst.w	r4, #32768	; 0x8000
 8001496:	bf18      	it	ne
 8001498:	f04f 0801 	movne.w	r8, #1
 800149c:	e78d      	b.n	80013ba <__gnu_unwind_execute+0xe>
 800149e:	43c2      	mvns	r2, r0
 80014a0:	f002 0307 	and.w	r3, r2, #7
 80014a4:	f44f 627f 	mov.w	r2, #4080	; 0xff0
 80014a8:	411a      	asrs	r2, r3
 80014aa:	0701      	lsls	r1, r0, #28
 80014ac:	f402 627f 	and.w	r2, r2, #4080	; 0xff0
 80014b0:	f04f 0300 	mov.w	r3, #0
 80014b4:	bf48      	it	mi
 80014b6:	f442 4280 	orrmi.w	r2, r2, #16384	; 0x4000
 80014ba:	4619      	mov	r1, r3
 80014bc:	4628      	mov	r0, r5
 80014be:	f7ff fd37 	bl	8000f30 <_Unwind_VRS_Pop>
 80014c2:	2800      	cmp	r0, #0
 80014c4:	f43f af79 	beq.w	80013ba <__gnu_unwind_execute+0xe>
 80014c8:	e79d      	b.n	8001406 <__gnu_unwind_execute+0x5a>
 80014ca:	28b1      	cmp	r0, #177	; 0xb1
 80014cc:	d033      	beq.n	8001536 <__gnu_unwind_execute+0x18a>
 80014ce:	28b2      	cmp	r0, #178	; 0xb2
 80014d0:	f000 808b 	beq.w	80015ea <__gnu_unwind_execute+0x23e>
 80014d4:	28b3      	cmp	r0, #179	; 0xb3
 80014d6:	d039      	beq.n	800154c <__gnu_unwind_execute+0x1a0>
 80014d8:	f000 03fc 	and.w	r3, r0, #252	; 0xfc
 80014dc:	2bb4      	cmp	r3, #180	; 0xb4
 80014de:	d092      	beq.n	8001406 <__gnu_unwind_execute+0x5a>
 80014e0:	f000 0207 	and.w	r2, r0, #7
 80014e4:	3201      	adds	r2, #1
 80014e6:	2301      	movs	r3, #1
 80014e8:	f442 2200 	orr.w	r2, r2, #524288	; 0x80000
 80014ec:	4619      	mov	r1, r3
 80014ee:	4628      	mov	r0, r5
 80014f0:	f7ff fd1e 	bl	8000f30 <_Unwind_VRS_Pop>
 80014f4:	2800      	cmp	r0, #0
 80014f6:	f43f af60 	beq.w	80013ba <__gnu_unwind_execute+0xe>
 80014fa:	e784      	b.n	8001406 <__gnu_unwind_execute+0x5a>
 80014fc:	28c6      	cmp	r0, #198	; 0xc6
 80014fe:	d042      	beq.n	8001586 <__gnu_unwind_execute+0x1da>
 8001500:	28c7      	cmp	r0, #199	; 0xc7
 8001502:	d04c      	beq.n	800159e <__gnu_unwind_execute+0x1f2>
 8001504:	f000 03f8 	and.w	r3, r0, #248	; 0xf8
 8001508:	2bc0      	cmp	r3, #192	; 0xc0
 800150a:	d05b      	beq.n	80015c4 <__gnu_unwind_execute+0x218>
 800150c:	28c8      	cmp	r0, #200	; 0xc8
 800150e:	d060      	beq.n	80015d2 <__gnu_unwind_execute+0x226>
 8001510:	28c9      	cmp	r0, #201	; 0xc9
 8001512:	f47f af78 	bne.w	8001406 <__gnu_unwind_execute+0x5a>
 8001516:	4630      	mov	r0, r6
 8001518:	f7ff ff1c 	bl	8001354 <next_unwind_byte>
 800151c:	0302      	lsls	r2, r0, #12
 800151e:	f000 000f 	and.w	r0, r0, #15
 8001522:	f402 2270 	and.w	r2, r2, #983040	; 0xf0000
 8001526:	3001      	adds	r0, #1
 8001528:	4302      	orrs	r2, r0
 800152a:	e765      	b.n	80013f8 <__gnu_unwind_execute+0x4c>
 800152c:	f1b8 0f00 	cmp.w	r8, #0
 8001530:	d018      	beq.n	8001564 <__gnu_unwind_execute+0x1b8>
 8001532:	2000      	movs	r0, #0
 8001534:	e768      	b.n	8001408 <__gnu_unwind_execute+0x5c>
 8001536:	4630      	mov	r0, r6
 8001538:	f7ff ff0c 	bl	8001354 <next_unwind_byte>
 800153c:	4602      	mov	r2, r0
 800153e:	2800      	cmp	r0, #0
 8001540:	f43f af61 	beq.w	8001406 <__gnu_unwind_execute+0x5a>
 8001544:	f010 03f0 	ands.w	r3, r0, #240	; 0xf0
 8001548:	d0d0      	beq.n	80014ec <__gnu_unwind_execute+0x140>
 800154a:	e75c      	b.n	8001406 <__gnu_unwind_execute+0x5a>
 800154c:	4630      	mov	r0, r6
 800154e:	f7ff ff01 	bl	8001354 <next_unwind_byte>
 8001552:	0301      	lsls	r1, r0, #12
 8001554:	f000 000f 	and.w	r0, r0, #15
 8001558:	f401 2170 	and.w	r1, r1, #983040	; 0xf0000
 800155c:	1c42      	adds	r2, r0, #1
 800155e:	2301      	movs	r3, #1
 8001560:	430a      	orrs	r2, r1
 8001562:	e7c3      	b.n	80014ec <__gnu_unwind_execute+0x140>
 8001564:	ac03      	add	r4, sp, #12
 8001566:	4643      	mov	r3, r8
 8001568:	220e      	movs	r2, #14
 800156a:	4641      	mov	r1, r8
 800156c:	9400      	str	r4, [sp, #0]
 800156e:	4628      	mov	r0, r5
 8001570:	f7ff fb00 	bl	8000b74 <_Unwind_VRS_Get>
 8001574:	9400      	str	r4, [sp, #0]
 8001576:	4628      	mov	r0, r5
 8001578:	4643      	mov	r3, r8
 800157a:	220f      	movs	r2, #15
 800157c:	4641      	mov	r1, r8
 800157e:	f7ff fb1d 	bl	8000bbc <_Unwind_VRS_Set>
 8001582:	4640      	mov	r0, r8
 8001584:	e740      	b.n	8001408 <__gnu_unwind_execute+0x5c>
 8001586:	4630      	mov	r0, r6
 8001588:	f7ff fee4 	bl	8001354 <next_unwind_byte>
 800158c:	0301      	lsls	r1, r0, #12
 800158e:	f000 000f 	and.w	r0, r0, #15
 8001592:	f401 2170 	and.w	r1, r1, #983040	; 0xf0000
 8001596:	1c42      	adds	r2, r0, #1
 8001598:	2303      	movs	r3, #3
 800159a:	430a      	orrs	r2, r1
 800159c:	e7a6      	b.n	80014ec <__gnu_unwind_execute+0x140>
 800159e:	4630      	mov	r0, r6
 80015a0:	f7ff fed8 	bl	8001354 <next_unwind_byte>
 80015a4:	4602      	mov	r2, r0
 80015a6:	2800      	cmp	r0, #0
 80015a8:	f43f af2d 	beq.w	8001406 <__gnu_unwind_execute+0x5a>
 80015ac:	f010 03f0 	ands.w	r3, r0, #240	; 0xf0
 80015b0:	f47f af29 	bne.w	8001406 <__gnu_unwind_execute+0x5a>
 80015b4:	2104      	movs	r1, #4
 80015b6:	4628      	mov	r0, r5
 80015b8:	f7ff fcba 	bl	8000f30 <_Unwind_VRS_Pop>
 80015bc:	2800      	cmp	r0, #0
 80015be:	f43f aefc 	beq.w	80013ba <__gnu_unwind_execute+0xe>
 80015c2:	e720      	b.n	8001406 <__gnu_unwind_execute+0x5a>
 80015c4:	f000 020f 	and.w	r2, r0, #15
 80015c8:	3201      	adds	r2, #1
 80015ca:	2303      	movs	r3, #3
 80015cc:	f442 2220 	orr.w	r2, r2, #655360	; 0xa0000
 80015d0:	e78c      	b.n	80014ec <__gnu_unwind_execute+0x140>
 80015d2:	4630      	mov	r0, r6
 80015d4:	f7ff febe 	bl	8001354 <next_unwind_byte>
 80015d8:	f000 02f0 	and.w	r2, r0, #240	; 0xf0
 80015dc:	f000 030f 	and.w	r3, r0, #15
 80015e0:	3210      	adds	r2, #16
 80015e2:	3301      	adds	r3, #1
 80015e4:	ea43 3202 	orr.w	r2, r3, r2, lsl #12
 80015e8:	e706      	b.n	80013f8 <__gnu_unwind_execute+0x4c>
 80015ea:	2300      	movs	r3, #0
 80015ec:	f10d 090c 	add.w	r9, sp, #12
 80015f0:	220d      	movs	r2, #13
 80015f2:	4619      	mov	r1, r3
 80015f4:	f8cd 9000 	str.w	r9, [sp]
 80015f8:	4628      	mov	r0, r5
 80015fa:	f7ff fabb 	bl	8000b74 <_Unwind_VRS_Get>
 80015fe:	4630      	mov	r0, r6
 8001600:	f7ff fea8 	bl	8001354 <next_unwind_byte>
 8001604:	0602      	lsls	r2, r0, #24
 8001606:	f04f 0702 	mov.w	r7, #2
 800160a:	d50c      	bpl.n	8001626 <__gnu_unwind_execute+0x27a>
 800160c:	9b03      	ldr	r3, [sp, #12]
 800160e:	f000 007f 	and.w	r0, r0, #127	; 0x7f
 8001612:	40b8      	lsls	r0, r7
 8001614:	4403      	add	r3, r0
 8001616:	4630      	mov	r0, r6
 8001618:	9303      	str	r3, [sp, #12]
 800161a:	f7ff fe9b 	bl	8001354 <next_unwind_byte>
 800161e:	0603      	lsls	r3, r0, #24
 8001620:	f107 0707 	add.w	r7, r7, #7
 8001624:	d4f2      	bmi.n	800160c <__gnu_unwind_execute+0x260>
 8001626:	9b03      	ldr	r3, [sp, #12]
 8001628:	f8cd 9000 	str.w	r9, [sp]
 800162c:	f000 047f 	and.w	r4, r0, #127	; 0x7f
 8001630:	f503 7201 	add.w	r2, r3, #516	; 0x204
 8001634:	40bc      	lsls	r4, r7
 8001636:	2300      	movs	r3, #0
 8001638:	4414      	add	r4, r2
 800163a:	4619      	mov	r1, r3
 800163c:	220d      	movs	r2, #13
 800163e:	4628      	mov	r0, r5
 8001640:	9403      	str	r4, [sp, #12]
 8001642:	f7ff fabb 	bl	8000bbc <_Unwind_VRS_Set>
 8001646:	e6b8      	b.n	80013ba <__gnu_unwind_execute+0xe>

08001648 <__gnu_unwind_frame>:
 8001648:	b510      	push	{r4, lr}
 800164a:	6cc2      	ldr	r2, [r0, #76]	; 0x4c
 800164c:	b084      	sub	sp, #16
 800164e:	6853      	ldr	r3, [r2, #4]
 8001650:	2403      	movs	r4, #3
 8001652:	f88d 400c 	strb.w	r4, [sp, #12]
 8001656:	021b      	lsls	r3, r3, #8
 8001658:	f102 0408 	add.w	r4, r2, #8
 800165c:	4608      	mov	r0, r1
 800165e:	79d2      	ldrb	r2, [r2, #7]
 8001660:	9301      	str	r3, [sp, #4]
 8001662:	a901      	add	r1, sp, #4
 8001664:	9402      	str	r4, [sp, #8]
 8001666:	f88d 200d 	strb.w	r2, [sp, #13]
 800166a:	f7ff fe9f 	bl	80013ac <__gnu_unwind_execute>
 800166e:	b004      	add	sp, #16
 8001670:	bd10      	pop	{r4, pc}
 8001672:	bf00      	nop

08001674 <_Unwind_GetRegionStart>:
 8001674:	b508      	push	{r3, lr}
 8001676:	f7ff fe97 	bl	80013a8 <unwind_UCB_from_context>
 800167a:	6c80      	ldr	r0, [r0, #72]	; 0x48
 800167c:	bd08      	pop	{r3, pc}
 800167e:	bf00      	nop

08001680 <_Unwind_GetLanguageSpecificData>:
 8001680:	b508      	push	{r3, lr}
 8001682:	f7ff fe91 	bl	80013a8 <unwind_UCB_from_context>
 8001686:	6cc0      	ldr	r0, [r0, #76]	; 0x4c
 8001688:	79c3      	ldrb	r3, [r0, #7]
 800168a:	3302      	adds	r3, #2
 800168c:	eb00 0083 	add.w	r0, r0, r3, lsl #2
 8001690:	bd08      	pop	{r3, pc}
 8001692:	bf00      	nop

08001694 <_Z18SystemClock_Configv>:
 8001694:	b5f0      	push	{r4, r5, r6, r7, lr}
 8001696:	b097      	sub	sp, #92	; 0x5c
 8001698:	a805      	add	r0, sp, #20
 800169a:	2244      	movs	r2, #68	; 0x44
 800169c:	2100      	movs	r1, #0
 800169e:	f003 f911 	bl	80048c4 <memset>
 80016a2:	2300      	movs	r3, #0
 80016a4:	f44f 7000 	mov.w	r0, #512	; 0x200
 80016a8:	e9cd 3300 	strd	r3, r3, [sp]
 80016ac:	e9cd 3302 	strd	r3, r3, [sp, #8]
 80016b0:	9304      	str	r3, [sp, #16]
 80016b2:	f000 fcfb 	bl	80020ac <HAL_PWREx_ControlVoltageScaling>
 80016b6:	b9e8      	cbnz	r0, 80016f4 <_Z18SystemClock_Configv+0x60>
 80016b8:	2300      	movs	r3, #0
 80016ba:	2410      	movs	r4, #16
 80016bc:	2101      	movs	r1, #1
 80016be:	22b0      	movs	r2, #176	; 0xb0
 80016c0:	a805      	add	r0, sp, #20
 80016c2:	e9cd 130c 	strd	r1, r3, [sp, #48]	; 0x30
 80016c6:	9405      	str	r4, [sp, #20]
 80016c8:	9310      	str	r3, [sp, #64]	; 0x40
 80016ca:	920e      	str	r2, [sp, #56]	; 0x38
 80016cc:	f000 fdd6 	bl	800227c <HAL_RCC_OscConfig>
 80016d0:	b9e8      	cbnz	r0, 800170e <_Z18SystemClock_Configv+0x7a>
 80016d2:	260f      	movs	r6, #15
 80016d4:	2700      	movs	r7, #0
 80016d6:	2400      	movs	r4, #0
 80016d8:	2500      	movs	r5, #0
 80016da:	2300      	movs	r3, #0
 80016dc:	4668      	mov	r0, sp
 80016de:	2102      	movs	r1, #2
 80016e0:	e9cd 6700 	strd	r6, r7, [sp]
 80016e4:	e9cd 4502 	strd	r4, r5, [sp, #8]
 80016e8:	9304      	str	r3, [sp, #16]
 80016ea:	f001 f8f9 	bl	80028e0 <HAL_RCC_ClockConfig>
 80016ee:	b938      	cbnz	r0, 8001700 <_Z18SystemClock_Configv+0x6c>
 80016f0:	b017      	add	sp, #92	; 0x5c
 80016f2:	bdf0      	pop	{r4, r5, r6, r7, pc}
 80016f4:	4b09      	ldr	r3, [pc, #36]	; (800171c <_Z18SystemClock_Configv+0x88>)
 80016f6:	2104      	movs	r1, #4
 80016f8:	6818      	ldr	r0, [r3, #0]
 80016fa:	f002 f8bb 	bl	8003874 <_ZN8tkrandom12EventHandler11SignalEventENS_5EventE>
 80016fe:	e7db      	b.n	80016b8 <_Z18SystemClock_Configv+0x24>
 8001700:	4b06      	ldr	r3, [pc, #24]	; (800171c <_Z18SystemClock_Configv+0x88>)
 8001702:	2104      	movs	r1, #4
 8001704:	6818      	ldr	r0, [r3, #0]
 8001706:	f002 f8b5 	bl	8003874 <_ZN8tkrandom12EventHandler11SignalEventENS_5EventE>
 800170a:	b017      	add	sp, #92	; 0x5c
 800170c:	bdf0      	pop	{r4, r5, r6, r7, pc}
 800170e:	4b03      	ldr	r3, [pc, #12]	; (800171c <_Z18SystemClock_Configv+0x88>)
 8001710:	2104      	movs	r1, #4
 8001712:	6818      	ldr	r0, [r3, #0]
 8001714:	f002 f8ae 	bl	8003874 <_ZN8tkrandom12EventHandler11SignalEventENS_5EventE>
 8001718:	e7db      	b.n	80016d2 <_Z18SystemClock_Configv+0x3e>
 800171a:	bf00      	nop
 800171c:	20000094 	.word	0x20000094

08001720 <main>:
 8001720:	e92d 41f0 	stmdb	sp!, {r4, r5, r6, r7, r8, lr}
 8001724:	2400      	movs	r4, #0
 8001726:	b08a      	sub	sp, #40	; 0x28
 8001728:	f000 fb18 	bl	8001d5c <HAL_Init>
 800172c:	f7ff ffb2 	bl	8001694 <_Z18SystemClock_Configv>
 8001730:	e9cd 4404 	strd	r4, r4, [sp, #16]
 8001734:	e9cd 4406 	strd	r4, r4, [sp, #24]
 8001738:	4bb3      	ldr	r3, [pc, #716]	; (8001a08 <main+0x2e8>)
 800173a:	9408      	str	r4, [sp, #32]
 800173c:	6cda      	ldr	r2, [r3, #76]	; 0x4c
 800173e:	f042 0201 	orr.w	r2, r2, #1
 8001742:	64da      	str	r2, [r3, #76]	; 0x4c
 8001744:	6cda      	ldr	r2, [r3, #76]	; 0x4c
 8001746:	f002 0201 	and.w	r2, r2, #1
 800174a:	9202      	str	r2, [sp, #8]
 800174c:	9a02      	ldr	r2, [sp, #8]
 800174e:	6cda      	ldr	r2, [r3, #76]	; 0x4c
 8001750:	f042 0202 	orr.w	r2, r2, #2
 8001754:	64da      	str	r2, [r3, #76]	; 0x4c
 8001756:	6cdb      	ldr	r3, [r3, #76]	; 0x4c
 8001758:	f003 0302 	and.w	r3, r3, #2
 800175c:	9303      	str	r3, [sp, #12]
 800175e:	4622      	mov	r2, r4
 8001760:	2150      	movs	r1, #80	; 0x50
 8001762:	f04f 4090 	mov.w	r0, #1207959552	; 0x48000000
 8001766:	9b03      	ldr	r3, [sp, #12]
 8001768:	f000 fc7c 	bl	8002064 <HAL_GPIO_WritePin>
 800176c:	48a7      	ldr	r0, [pc, #668]	; (8001a0c <main+0x2ec>)
 800176e:	4622      	mov	r2, r4
 8001770:	2101      	movs	r1, #1
 8001772:	f000 fc77 	bl	8002064 <HAL_GPIO_WritePin>
 8001776:	2600      	movs	r6, #0
 8001778:	2210      	movs	r2, #16
 800177a:	2301      	movs	r3, #1
 800177c:	2700      	movs	r7, #0
 800177e:	a904      	add	r1, sp, #16
 8001780:	f04f 4090 	mov.w	r0, #1207959552	; 0x48000000
 8001784:	e9cd 2304 	strd	r2, r3, [sp, #16]
 8001788:	e9cd 6706 	strd	r6, r7, [sp, #24]
 800178c:	f000 fb7c 	bl	8001e88 <HAL_GPIO_Init>
 8001790:	2240      	movs	r2, #64	; 0x40
 8001792:	2301      	movs	r3, #1
 8001794:	e9cd 2304 	strd	r2, r3, [sp, #16]
 8001798:	a904      	add	r1, sp, #16
 800179a:	2202      	movs	r2, #2
 800179c:	2300      	movs	r3, #0
 800179e:	f04f 4090 	mov.w	r0, #1207959552	; 0x48000000
 80017a2:	e9cd 2306 	strd	r2, r3, [sp, #24]
 80017a6:	f000 fb6f 	bl	8001e88 <HAL_GPIO_Init>
 80017aa:	2201      	movs	r2, #1
 80017ac:	2301      	movs	r3, #1
 80017ae:	4897      	ldr	r0, [pc, #604]	; (8001a0c <main+0x2ec>)
 80017b0:	a904      	add	r1, sp, #16
 80017b2:	e9cd 2304 	strd	r2, r3, [sp, #16]
 80017b6:	e9cd 6706 	strd	r6, r7, [sp, #24]
 80017ba:	f000 fb65 	bl	8001e88 <HAL_GPIO_Init>
 80017be:	2202      	movs	r2, #2
 80017c0:	f44f 1388 	mov.w	r3, #1114112	; 0x110000
 80017c4:	4891      	ldr	r0, [pc, #580]	; (8001a0c <main+0x2ec>)
 80017c6:	9406      	str	r4, [sp, #24]
 80017c8:	a904      	add	r1, sp, #16
 80017ca:	e9cd 2304 	strd	r2, r3, [sp, #16]
 80017ce:	f000 fb5b 	bl	8001e88 <HAL_GPIO_Init>
 80017d2:	f44f 6280 	mov.w	r2, #1024	; 0x400
 80017d6:	f44f 1388 	mov.w	r3, #1114112	; 0x110000
 80017da:	a904      	add	r1, sp, #16
 80017dc:	f04f 4090 	mov.w	r0, #1207959552	; 0x48000000
 80017e0:	e9cd 2304 	strd	r2, r3, [sp, #16]
 80017e4:	9406      	str	r4, [sp, #24]
 80017e6:	2502      	movs	r5, #2
 80017e8:	f000 fb4e 	bl	8001e88 <HAL_GPIO_Init>
 80017ec:	f44f 1344 	mov.w	r3, #3211264	; 0x310000
 80017f0:	22f0      	movs	r2, #240	; 0xf0
 80017f2:	4886      	ldr	r0, [pc, #536]	; (8001a0c <main+0x2ec>)
 80017f4:	9506      	str	r5, [sp, #24]
 80017f6:	a904      	add	r1, sp, #16
 80017f8:	e9cd 2304 	strd	r2, r3, [sp, #16]
 80017fc:	f000 fb44 	bl	8001e88 <HAL_GPIO_Init>
 8001800:	4622      	mov	r2, r4
 8001802:	4621      	mov	r1, r4
 8001804:	2007      	movs	r0, #7
 8001806:	f000 fadf 	bl	8001dc8 <HAL_NVIC_SetPriority>
 800180a:	2007      	movs	r0, #7
 800180c:	f000 fb14 	bl	8001e38 <HAL_NVIC_EnableIRQ>
 8001810:	4622      	mov	r2, r4
 8001812:	4621      	mov	r1, r4
 8001814:	200a      	movs	r0, #10
 8001816:	f000 fad7 	bl	8001dc8 <HAL_NVIC_SetPriority>
 800181a:	200a      	movs	r0, #10
 800181c:	f000 fb0c 	bl	8001e38 <HAL_NVIC_EnableIRQ>
 8001820:	4622      	mov	r2, r4
 8001822:	4621      	mov	r1, r4
 8001824:	2017      	movs	r0, #23
 8001826:	f000 facf 	bl	8001dc8 <HAL_NVIC_SetPriority>
 800182a:	2017      	movs	r0, #23
 800182c:	f000 fb04 	bl	8001e38 <HAL_NVIC_EnableIRQ>
 8001830:	4622      	mov	r2, r4
 8001832:	4621      	mov	r1, r4
 8001834:	2028      	movs	r0, #40	; 0x28
 8001836:	f000 fac7 	bl	8001dc8 <HAL_NVIC_SetPriority>
 800183a:	2028      	movs	r0, #40	; 0x28
 800183c:	f000 fafc 	bl	8001e38 <HAL_NVIC_EnableIRQ>
 8001840:	4873      	ldr	r0, [pc, #460]	; (8001a10 <main+0x2f0>)
 8001842:	4b74      	ldr	r3, [pc, #464]	; (8001a14 <main+0x2f4>)
 8001844:	6003      	str	r3, [r0, #0]
 8001846:	f001 f9e3 	bl	8002c10 <HAL_RNG_Init>
 800184a:	2800      	cmp	r0, #0
 800184c:	f040 80a0 	bne.w	8001990 <main+0x270>
 8001850:	4871      	ldr	r0, [pc, #452]	; (8001a18 <main+0x2f8>)
 8001852:	4b72      	ldr	r3, [pc, #456]	; (8001a1c <main+0x2fc>)
 8001854:	6003      	str	r3, [r0, #0]
 8001856:	f44f 63e0 	mov.w	r3, #1792	; 0x700
 800185a:	f44f 7482 	mov.w	r4, #260	; 0x104
 800185e:	f44f 7100 	mov.w	r1, #512	; 0x200
 8001862:	2207      	movs	r2, #7
 8001864:	60c3      	str	r3, [r0, #12]
 8001866:	2300      	movs	r3, #0
 8001868:	e9c0 3304 	strd	r3, r3, [r0, #16]
 800186c:	e9c0 3307 	strd	r3, r3, [r0, #28]
 8001870:	e9c0 3309 	strd	r3, r3, [r0, #36]	; 0x24
 8001874:	e9c0 330c 	strd	r3, r3, [r0, #48]	; 0x30
 8001878:	6044      	str	r4, [r0, #4]
 800187a:	6181      	str	r1, [r0, #24]
 800187c:	62c2      	str	r2, [r0, #44]	; 0x2c
 800187e:	6083      	str	r3, [r0, #8]
 8001880:	f001 fb62 	bl	8002f48 <HAL_SPI_Init>
 8001884:	2800      	cmp	r0, #0
 8001886:	f040 8095 	bne.w	80019b4 <main+0x294>
 800188a:	4865      	ldr	r0, [pc, #404]	; (8001a20 <main+0x300>)
 800188c:	4b65      	ldr	r3, [pc, #404]	; (8001a24 <main+0x304>)
 800188e:	6003      	str	r3, [r0, #0]
 8001890:	f44f 73fa 	mov.w	r3, #500	; 0x1f4
 8001894:	f241 7170 	movw	r1, #6000	; 0x1770
 8001898:	2280      	movs	r2, #128	; 0x80
 800189a:	6043      	str	r3, [r0, #4]
 800189c:	2300      	movs	r3, #0
 800189e:	e9cd 3304 	strd	r3, r3, [sp, #16]
 80018a2:	60c1      	str	r1, [r0, #12]
 80018a4:	6182      	str	r2, [r0, #24]
 80018a6:	6083      	str	r3, [r0, #8]
 80018a8:	9306      	str	r3, [sp, #24]
 80018aa:	f001 fcf1 	bl	8003290 <HAL_TIM_Base_Init>
 80018ae:	2800      	cmp	r0, #0
 80018b0:	d17a      	bne.n	80019a8 <main+0x288>
 80018b2:	2300      	movs	r3, #0
 80018b4:	485a      	ldr	r0, [pc, #360]	; (8001a20 <main+0x300>)
 80018b6:	9304      	str	r3, [sp, #16]
 80018b8:	a904      	add	r1, sp, #16
 80018ba:	9306      	str	r3, [sp, #24]
 80018bc:	f001 fe60 	bl	8003580 <HAL_TIMEx_MasterConfigSynchronization>
 80018c0:	2800      	cmp	r0, #0
 80018c2:	d16b      	bne.n	800199c <main+0x27c>
 80018c4:	2101      	movs	r1, #1
 80018c6:	4856      	ldr	r0, [pc, #344]	; (8001a20 <main+0x300>)
 80018c8:	f001 fd84 	bl	80033d4 <HAL_TIM_GenerateEvent>
 80018cc:	2200      	movs	r2, #0
 80018ce:	4611      	mov	r1, r2
 80018d0:	2036      	movs	r0, #54	; 0x36
 80018d2:	f000 fa79 	bl	8001dc8 <HAL_NVIC_SetPriority>
 80018d6:	2036      	movs	r0, #54	; 0x36
 80018d8:	f000 faae 	bl	8001e38 <HAL_NVIC_EnableIRQ>
 80018dc:	4850      	ldr	r0, [pc, #320]	; (8001a20 <main+0x300>)
 80018de:	f001 fd4b 	bl	8003378 <HAL_TIM_Base_Start_IT>
 80018e2:	201c      	movs	r0, #28
 80018e4:	f002 fdff 	bl	80044e6 <_Znwj>
 80018e8:	4948      	ldr	r1, [pc, #288]	; (8001a0c <main+0x2ec>)
 80018ea:	2201      	movs	r2, #1
 80018ec:	4607      	mov	r7, r0
 80018ee:	f002 f815 	bl	800391c <_ZN8tkrandom12PcbStatusLedC1EP12GPIO_TypeDeft>
 80018f2:	201c      	movs	r0, #28
 80018f4:	f002 fdf7 	bl	80044e6 <_Znwj>
 80018f8:	2340      	movs	r3, #64	; 0x40
 80018fa:	f04f 4290 	mov.w	r2, #1207959552	; 0x48000000
 80018fe:	e9cd 2300 	strd	r2, r3, [sp]
 8001902:	4945      	ldr	r1, [pc, #276]	; (8001a18 <main+0x2f8>)
 8001904:	2310      	movs	r3, #16
 8001906:	4605      	mov	r5, r0
 8001908:	f002 f9e8 	bl	8003cdc <_ZN8tkrandom11TransmitterC1EP19__SPI_HandleTypeDefP12GPIO_TypeDeftS4_t>
 800190c:	2004      	movs	r0, #4
 800190e:	f002 fdea 	bl	80044e6 <_Znwj>
 8001912:	493f      	ldr	r1, [pc, #252]	; (8001a10 <main+0x2f0>)
 8001914:	4604      	mov	r4, r0
 8001916:	f001 ffc3 	bl	80038a0 <_ZN8tkrandom9GeneratorC1EP17RNG_HandleTypeDef>
 800191a:	2030      	movs	r0, #48	; 0x30
 800191c:	f002 fde3 	bl	80044e6 <_Znwj>
 8001920:	4621      	mov	r1, r4
 8001922:	462a      	mov	r2, r5
 8001924:	4606      	mov	r6, r0
 8001926:	f002 f83d 	bl	80039a4 <_ZN8tkrandom10RngHandlerC1ERNS_9GeneratorERNS_11TransmitterE>
 800192a:	2020      	movs	r0, #32
 800192c:	f002 fddb 	bl	80044e6 <_Znwj>
 8001930:	f04f 0820 	mov.w	r8, #32
 8001934:	4604      	mov	r4, r0
 8001936:	4642      	mov	r2, r8
 8001938:	2100      	movs	r1, #0
 800193a:	f002 ffc3 	bl	80048c4 <memset>
 800193e:	4b33      	ldr	r3, [pc, #204]	; (8001a0c <main+0x2ec>)
 8001940:	f8a4 800c 	strh.w	r8, [r4, #12]
 8001944:	2140      	movs	r1, #64	; 0x40
 8001946:	f04f 0c10 	mov.w	ip, #16
 800194a:	2280      	movs	r2, #128	; 0x80
 800194c:	82a1      	strh	r1, [r4, #20]
 800194e:	2008      	movs	r0, #8
 8001950:	f8a4 c004 	strh.w	ip, [r4, #4]
 8001954:	83a2      	strh	r2, [r4, #28]
 8001956:	6023      	str	r3, [r4, #0]
 8001958:	60a3      	str	r3, [r4, #8]
 800195a:	6123      	str	r3, [r4, #16]
 800195c:	61a3      	str	r3, [r4, #24]
 800195e:	f002 fdc2 	bl	80044e6 <_Znwj>
 8001962:	4629      	mov	r1, r5
 8001964:	4605      	mov	r5, r0
 8001966:	f001 fe49 	bl	80035fc <_ZN8tkrandom9AnimationC1ERNS_11TransmitterE>
 800196a:	2024      	movs	r0, #36	; 0x24
 800196c:	f002 fdbb 	bl	80044e6 <_Znwj>
 8001970:	462b      	mov	r3, r5
 8001972:	9400      	str	r4, [sp, #0]
 8001974:	4632      	mov	r2, r6
 8001976:	4639      	mov	r1, r7
 8001978:	4605      	mov	r5, r0
 800197a:	f001 fecd 	bl	8003718 <_ZN8tkrandom12EventHandlerC1ERNS_12PcbStatusLedERNS_10RngHandlerERNS_9AnimationERNS_16DistributionPinsE>
 800197e:	4c2a      	ldr	r4, [pc, #168]	; (8001a28 <main+0x308>)
 8001980:	4628      	mov	r0, r5
 8001982:	6025      	str	r5, [r4, #0]
 8001984:	f001 fed8 	bl	8003738 <_ZN8tkrandom12EventHandler4InitEv>
 8001988:	6820      	ldr	r0, [r4, #0]
 800198a:	f001 ff2f 	bl	80037ec <_ZN8tkrandom12EventHandler3RunEv>
 800198e:	e7fb      	b.n	8001988 <main+0x268>
 8001990:	4b25      	ldr	r3, [pc, #148]	; (8001a28 <main+0x308>)
 8001992:	2104      	movs	r1, #4
 8001994:	6818      	ldr	r0, [r3, #0]
 8001996:	f001 ff6d 	bl	8003874 <_ZN8tkrandom12EventHandler11SignalEventENS_5EventE>
 800199a:	e759      	b.n	8001850 <main+0x130>
 800199c:	4b22      	ldr	r3, [pc, #136]	; (8001a28 <main+0x308>)
 800199e:	2104      	movs	r1, #4
 80019a0:	6818      	ldr	r0, [r3, #0]
 80019a2:	f001 ff67 	bl	8003874 <_ZN8tkrandom12EventHandler11SignalEventENS_5EventE>
 80019a6:	e78d      	b.n	80018c4 <main+0x1a4>
 80019a8:	4b1f      	ldr	r3, [pc, #124]	; (8001a28 <main+0x308>)
 80019aa:	2104      	movs	r1, #4
 80019ac:	6818      	ldr	r0, [r3, #0]
 80019ae:	f001 ff61 	bl	8003874 <_ZN8tkrandom12EventHandler11SignalEventENS_5EventE>
 80019b2:	e77e      	b.n	80018b2 <main+0x192>
 80019b4:	4b1c      	ldr	r3, [pc, #112]	; (8001a28 <main+0x308>)
 80019b6:	2104      	movs	r1, #4
 80019b8:	6818      	ldr	r0, [r3, #0]
 80019ba:	f001 ff5b 	bl	8003874 <_ZN8tkrandom12EventHandler11SignalEventENS_5EventE>
 80019be:	e764      	b.n	800188a <main+0x16a>
 80019c0:	4628      	mov	r0, r5
 80019c2:	2124      	movs	r1, #36	; 0x24
 80019c4:	f002 fa2c 	bl	8003e20 <_ZdlPvj>
 80019c8:	f002 fa2c 	bl	8003e24 <__cxa_end_cleanup>
 80019cc:	4638      	mov	r0, r7
 80019ce:	211c      	movs	r1, #28
 80019d0:	f002 fa26 	bl	8003e20 <_ZdlPvj>
 80019d4:	f002 fa26 	bl	8003e24 <__cxa_end_cleanup>
 80019d8:	4628      	mov	r0, r5
 80019da:	2108      	movs	r1, #8
 80019dc:	f002 fa20 	bl	8003e20 <_ZdlPvj>
 80019e0:	f002 fa20 	bl	8003e24 <__cxa_end_cleanup>
 80019e4:	4630      	mov	r0, r6
 80019e6:	2130      	movs	r1, #48	; 0x30
 80019e8:	f002 fa1a 	bl	8003e20 <_ZdlPvj>
 80019ec:	f002 fa1a 	bl	8003e24 <__cxa_end_cleanup>
 80019f0:	4620      	mov	r0, r4
 80019f2:	2104      	movs	r1, #4
 80019f4:	f002 fa14 	bl	8003e20 <_ZdlPvj>
 80019f8:	f002 fa14 	bl	8003e24 <__cxa_end_cleanup>
 80019fc:	4628      	mov	r0, r5
 80019fe:	211c      	movs	r1, #28
 8001a00:	f002 fa0e 	bl	8003e20 <_ZdlPvj>
 8001a04:	f002 fa0e 	bl	8003e24 <__cxa_end_cleanup>
 8001a08:	40021000 	.word	0x40021000
 8001a0c:	48000400 	.word	0x48000400
 8001a10:	20000098 	.word	0x20000098
 8001a14:	50060800 	.word	0x50060800
 8001a18:	200000a8 	.word	0x200000a8
 8001a1c:	40013000 	.word	0x40013000
 8001a20:	2000010c 	.word	0x2000010c
 8001a24:	40001000 	.word	0x40001000
 8001a28:	20000094 	.word	0x20000094

08001a2c <HAL_TIM_PeriodElapsedCallback>:
 8001a2c:	4b02      	ldr	r3, [pc, #8]	; (8001a38 <HAL_TIM_PeriodElapsedCallback+0xc>)
 8001a2e:	2100      	movs	r1, #0
 8001a30:	6818      	ldr	r0, [r3, #0]
 8001a32:	f001 bf1f 	b.w	8003874 <_ZN8tkrandom12EventHandler11SignalEventENS_5EventE>
 8001a36:	bf00      	nop
 8001a38:	20000094 	.word	0x20000094

08001a3c <HAL_GPIO_EXTI_Callback>:
 8001a3c:	2802      	cmp	r0, #2
 8001a3e:	d012      	beq.n	8001a66 <HAL_GPIO_EXTI_Callback+0x2a>
 8001a40:	f5b0 6f80 	cmp.w	r0, #1024	; 0x400
 8001a44:	d00a      	beq.n	8001a5c <HAL_GPIO_EXTI_Callback+0x20>
 8001a46:	2810      	cmp	r0, #16
 8001a48:	d003      	beq.n	8001a52 <HAL_GPIO_EXTI_Callback+0x16>
 8001a4a:	2820      	cmp	r0, #32
 8001a4c:	d001      	beq.n	8001a52 <HAL_GPIO_EXTI_Callback+0x16>
 8001a4e:	2840      	cmp	r0, #64	; 0x40
 8001a50:	d10e      	bne.n	8001a70 <HAL_GPIO_EXTI_Callback+0x34>
 8001a52:	4b09      	ldr	r3, [pc, #36]	; (8001a78 <HAL_GPIO_EXTI_Callback+0x3c>)
 8001a54:	2101      	movs	r1, #1
 8001a56:	6818      	ldr	r0, [r3, #0]
 8001a58:	f001 bf0c 	b.w	8003874 <_ZN8tkrandom12EventHandler11SignalEventENS_5EventE>
 8001a5c:	4b06      	ldr	r3, [pc, #24]	; (8001a78 <HAL_GPIO_EXTI_Callback+0x3c>)
 8001a5e:	2103      	movs	r1, #3
 8001a60:	6818      	ldr	r0, [r3, #0]
 8001a62:	f001 bf07 	b.w	8003874 <_ZN8tkrandom12EventHandler11SignalEventENS_5EventE>
 8001a66:	4b04      	ldr	r3, [pc, #16]	; (8001a78 <HAL_GPIO_EXTI_Callback+0x3c>)
 8001a68:	4601      	mov	r1, r0
 8001a6a:	6818      	ldr	r0, [r3, #0]
 8001a6c:	f001 bf02 	b.w	8003874 <_ZN8tkrandom12EventHandler11SignalEventENS_5EventE>
 8001a70:	2880      	cmp	r0, #128	; 0x80
 8001a72:	d0ee      	beq.n	8001a52 <HAL_GPIO_EXTI_Callback+0x16>
 8001a74:	4770      	bx	lr
 8001a76:	bf00      	nop
 8001a78:	20000094 	.word	0x20000094

08001a7c <Error_Handler>:
 8001a7c:	4b02      	ldr	r3, [pc, #8]	; (8001a88 <Error_Handler+0xc>)
 8001a7e:	2104      	movs	r1, #4
 8001a80:	6818      	ldr	r0, [r3, #0]
 8001a82:	f001 bef7 	b.w	8003874 <_ZN8tkrandom12EventHandler11SignalEventENS_5EventE>
 8001a86:	bf00      	nop
 8001a88:	20000094 	.word	0x20000094

08001a8c <HAL_MspInit>:
 8001a8c:	4b0a      	ldr	r3, [pc, #40]	; (8001ab8 <HAL_MspInit+0x2c>)
 8001a8e:	6e1a      	ldr	r2, [r3, #96]	; 0x60
 8001a90:	f042 0201 	orr.w	r2, r2, #1
 8001a94:	661a      	str	r2, [r3, #96]	; 0x60
 8001a96:	6e1a      	ldr	r2, [r3, #96]	; 0x60
 8001a98:	b082      	sub	sp, #8
 8001a9a:	f002 0201 	and.w	r2, r2, #1
 8001a9e:	9200      	str	r2, [sp, #0]
 8001aa0:	9a00      	ldr	r2, [sp, #0]
 8001aa2:	6d9a      	ldr	r2, [r3, #88]	; 0x58
 8001aa4:	f042 5280 	orr.w	r2, r2, #268435456	; 0x10000000
 8001aa8:	659a      	str	r2, [r3, #88]	; 0x58
 8001aaa:	6d9b      	ldr	r3, [r3, #88]	; 0x58
 8001aac:	f003 5380 	and.w	r3, r3, #268435456	; 0x10000000
 8001ab0:	9301      	str	r3, [sp, #4]
 8001ab2:	9b01      	ldr	r3, [sp, #4]
 8001ab4:	b002      	add	sp, #8
 8001ab6:	4770      	bx	lr
 8001ab8:	40021000 	.word	0x40021000

08001abc <HAL_RNG_MspInit>:
 8001abc:	b510      	push	{r4, lr}
 8001abe:	4604      	mov	r4, r0
 8001ac0:	b08e      	sub	sp, #56	; 0x38
 8001ac2:	2234      	movs	r2, #52	; 0x34
 8001ac4:	a801      	add	r0, sp, #4
 8001ac6:	2100      	movs	r1, #0
 8001ac8:	f002 fefc 	bl	80048c4 <memset>
 8001acc:	6822      	ldr	r2, [r4, #0]
 8001ace:	4b0f      	ldr	r3, [pc, #60]	; (8001b0c <HAL_RNG_MspInit+0x50>)
 8001ad0:	429a      	cmp	r2, r3
 8001ad2:	d001      	beq.n	8001ad8 <HAL_RNG_MspInit+0x1c>
 8001ad4:	b00e      	add	sp, #56	; 0x38
 8001ad6:	bd10      	pop	{r4, pc}
 8001ad8:	f44f 2280 	mov.w	r2, #262144	; 0x40000
 8001adc:	f04f 6340 	mov.w	r3, #201326592	; 0xc000000
 8001ae0:	a801      	add	r0, sp, #4
 8001ae2:	9201      	str	r2, [sp, #4]
 8001ae4:	930c      	str	r3, [sp, #48]	; 0x30
 8001ae6:	f000 ff93 	bl	8002a10 <HAL_RCCEx_PeriphCLKConfig>
 8001aea:	b958      	cbnz	r0, 8001b04 <HAL_RNG_MspInit+0x48>
 8001aec:	4b08      	ldr	r3, [pc, #32]	; (8001b10 <HAL_RNG_MspInit+0x54>)
 8001aee:	6cda      	ldr	r2, [r3, #76]	; 0x4c
 8001af0:	f442 2280 	orr.w	r2, r2, #262144	; 0x40000
 8001af4:	64da      	str	r2, [r3, #76]	; 0x4c
 8001af6:	6cdb      	ldr	r3, [r3, #76]	; 0x4c
 8001af8:	f403 2380 	and.w	r3, r3, #262144	; 0x40000
 8001afc:	9300      	str	r3, [sp, #0]
 8001afe:	9b00      	ldr	r3, [sp, #0]
 8001b00:	b00e      	add	sp, #56	; 0x38
 8001b02:	bd10      	pop	{r4, pc}
 8001b04:	f7ff ffba 	bl	8001a7c <Error_Handler>
 8001b08:	e7f0      	b.n	8001aec <HAL_RNG_MspInit+0x30>
 8001b0a:	bf00      	nop
 8001b0c:	50060800 	.word	0x50060800
 8001b10:	40021000 	.word	0x40021000

08001b14 <HAL_RNG_MspDeInit>:
 8001b14:	4b05      	ldr	r3, [pc, #20]	; (8001b2c <HAL_RNG_MspDeInit+0x18>)
 8001b16:	6802      	ldr	r2, [r0, #0]
 8001b18:	429a      	cmp	r2, r3
 8001b1a:	d000      	beq.n	8001b1e <HAL_RNG_MspDeInit+0xa>
 8001b1c:	4770      	bx	lr
 8001b1e:	4a04      	ldr	r2, [pc, #16]	; (8001b30 <HAL_RNG_MspDeInit+0x1c>)
 8001b20:	6cd3      	ldr	r3, [r2, #76]	; 0x4c
 8001b22:	f423 2380 	bic.w	r3, r3, #262144	; 0x40000
 8001b26:	64d3      	str	r3, [r2, #76]	; 0x4c
 8001b28:	4770      	bx	lr
 8001b2a:	bf00      	nop
 8001b2c:	50060800 	.word	0x50060800
 8001b30:	40021000 	.word	0x40021000

08001b34 <HAL_SPI_MspInit>:
 8001b34:	b570      	push	{r4, r5, r6, lr}
 8001b36:	6801      	ldr	r1, [r0, #0]
 8001b38:	4a19      	ldr	r2, [pc, #100]	; (8001ba0 <HAL_SPI_MspInit+0x6c>)
 8001b3a:	b088      	sub	sp, #32
 8001b3c:	2300      	movs	r3, #0
 8001b3e:	4291      	cmp	r1, r2
 8001b40:	e9cd 3302 	strd	r3, r3, [sp, #8]
 8001b44:	e9cd 3304 	strd	r3, r3, [sp, #16]
 8001b48:	9306      	str	r3, [sp, #24]
 8001b4a:	d001      	beq.n	8001b50 <HAL_SPI_MspInit+0x1c>
 8001b4c:	b008      	add	sp, #32
 8001b4e:	bd70      	pop	{r4, r5, r6, pc}
 8001b50:	f103 4380 	add.w	r3, r3, #1073741824	; 0x40000000
 8001b54:	f503 3304 	add.w	r3, r3, #135168	; 0x21000
 8001b58:	2005      	movs	r0, #5
 8001b5a:	6e1a      	ldr	r2, [r3, #96]	; 0x60
 8001b5c:	f442 5280 	orr.w	r2, r2, #4096	; 0x1000
 8001b60:	661a      	str	r2, [r3, #96]	; 0x60
 8001b62:	6e1a      	ldr	r2, [r3, #96]	; 0x60
 8001b64:	f402 5280 	and.w	r2, r2, #4096	; 0x1000
 8001b68:	9200      	str	r2, [sp, #0]
 8001b6a:	9a00      	ldr	r2, [sp, #0]
 8001b6c:	6cda      	ldr	r2, [r3, #76]	; 0x4c
 8001b6e:	f042 0201 	orr.w	r2, r2, #1
 8001b72:	64da      	str	r2, [r3, #76]	; 0x4c
 8001b74:	6cdb      	ldr	r3, [r3, #76]	; 0x4c
 8001b76:	9006      	str	r0, [sp, #24]
 8001b78:	f003 0301 	and.w	r3, r3, #1
 8001b7c:	9301      	str	r3, [sp, #4]
 8001b7e:	2200      	movs	r2, #0
 8001b80:	2303      	movs	r3, #3
 8001b82:	a902      	add	r1, sp, #8
 8001b84:	24a0      	movs	r4, #160	; 0xa0
 8001b86:	2502      	movs	r5, #2
 8001b88:	f04f 4090 	mov.w	r0, #1207959552	; 0x48000000
 8001b8c:	e9cd 4502 	strd	r4, r5, [sp, #8]
 8001b90:	e9cd 2304 	strd	r2, r3, [sp, #16]
 8001b94:	9e01      	ldr	r6, [sp, #4]
 8001b96:	f000 f977 	bl	8001e88 <HAL_GPIO_Init>
 8001b9a:	b008      	add	sp, #32
 8001b9c:	bd70      	pop	{r4, r5, r6, pc}
 8001b9e:	bf00      	nop
 8001ba0:	40013000 	.word	0x40013000

08001ba4 <HAL_TIM_Base_MspInit>:
 8001ba4:	4b0e      	ldr	r3, [pc, #56]	; (8001be0 <HAL_TIM_Base_MspInit+0x3c>)
 8001ba6:	6802      	ldr	r2, [r0, #0]
 8001ba8:	429a      	cmp	r2, r3
 8001baa:	d000      	beq.n	8001bae <HAL_TIM_Base_MspInit+0xa>
 8001bac:	4770      	bx	lr
 8001bae:	f503 3300 	add.w	r3, r3, #131072	; 0x20000
 8001bb2:	b500      	push	{lr}
 8001bb4:	6d9a      	ldr	r2, [r3, #88]	; 0x58
 8001bb6:	f042 0210 	orr.w	r2, r2, #16
 8001bba:	659a      	str	r2, [r3, #88]	; 0x58
 8001bbc:	6d9b      	ldr	r3, [r3, #88]	; 0x58
 8001bbe:	b083      	sub	sp, #12
 8001bc0:	2200      	movs	r2, #0
 8001bc2:	f003 0310 	and.w	r3, r3, #16
 8001bc6:	9301      	str	r3, [sp, #4]
 8001bc8:	4611      	mov	r1, r2
 8001bca:	2036      	movs	r0, #54	; 0x36
 8001bcc:	9b01      	ldr	r3, [sp, #4]
 8001bce:	f000 f8fb 	bl	8001dc8 <HAL_NVIC_SetPriority>
 8001bd2:	2036      	movs	r0, #54	; 0x36
 8001bd4:	b003      	add	sp, #12
 8001bd6:	f85d eb04 	ldr.w	lr, [sp], #4
 8001bda:	f000 b92d 	b.w	8001e38 <HAL_NVIC_EnableIRQ>
 8001bde:	bf00      	nop
 8001be0:	40001000 	.word	0x40001000

08001be4 <NMI_Handler>:
 8001be4:	e7fe      	b.n	8001be4 <NMI_Handler>
 8001be6:	bf00      	nop

08001be8 <HardFault_Handler>:
 8001be8:	e7fe      	b.n	8001be8 <HardFault_Handler>
 8001bea:	bf00      	nop

08001bec <MemManage_Handler>:
 8001bec:	e7fe      	b.n	8001bec <MemManage_Handler>
 8001bee:	bf00      	nop

08001bf0 <BusFault_Handler>:
 8001bf0:	e7fe      	b.n	8001bf0 <BusFault_Handler>
 8001bf2:	bf00      	nop

08001bf4 <UsageFault_Handler>:
 8001bf4:	e7fe      	b.n	8001bf4 <UsageFault_Handler>
 8001bf6:	bf00      	nop

08001bf8 <SVC_Handler>:
 8001bf8:	4770      	bx	lr
 8001bfa:	bf00      	nop

08001bfc <DebugMon_Handler>:
 8001bfc:	4770      	bx	lr
 8001bfe:	bf00      	nop

08001c00 <PendSV_Handler>:
 8001c00:	4770      	bx	lr
 8001c02:	bf00      	nop

08001c04 <SysTick_Handler>:
 8001c04:	f000 b8ba 	b.w	8001d7c <HAL_IncTick>

08001c08 <EXTI1_IRQHandler>:
 8001c08:	2002      	movs	r0, #2
 8001c0a:	f000 ba3b 	b.w	8002084 <HAL_GPIO_EXTI_IRQHandler>
 8001c0e:	bf00      	nop

08001c10 <EXTI4_IRQHandler>:
 8001c10:	2010      	movs	r0, #16
 8001c12:	f000 ba37 	b.w	8002084 <HAL_GPIO_EXTI_IRQHandler>
 8001c16:	bf00      	nop

08001c18 <EXTI9_5_IRQHandler>:
 8001c18:	b508      	push	{r3, lr}
 8001c1a:	2020      	movs	r0, #32
 8001c1c:	f000 fa32 	bl	8002084 <HAL_GPIO_EXTI_IRQHandler>
 8001c20:	2040      	movs	r0, #64	; 0x40
 8001c22:	f000 fa2f 	bl	8002084 <HAL_GPIO_EXTI_IRQHandler>
 8001c26:	e8bd 4008 	ldmia.w	sp!, {r3, lr}
 8001c2a:	2080      	movs	r0, #128	; 0x80
 8001c2c:	f000 ba2a 	b.w	8002084 <HAL_GPIO_EXTI_IRQHandler>

08001c30 <EXTI15_10_IRQHandler>:
 8001c30:	f44f 6080 	mov.w	r0, #1024	; 0x400
 8001c34:	f000 ba26 	b.w	8002084 <HAL_GPIO_EXTI_IRQHandler>

08001c38 <TIM6_IRQHandler>:
 8001c38:	4801      	ldr	r0, [pc, #4]	; (8001c40 <TIM6_IRQHandler+0x8>)
 8001c3a:	f001 bbe9 	b.w	8003410 <HAL_TIM_IRQHandler>
 8001c3e:	bf00      	nop
 8001c40:	2000010c 	.word	0x2000010c

08001c44 <_getpid>:
 8001c44:	2001      	movs	r0, #1
 8001c46:	4770      	bx	lr

08001c48 <_kill>:
 8001c48:	b508      	push	{r3, lr}
 8001c4a:	f002 fe01 	bl	8004850 <__errno>
 8001c4e:	2316      	movs	r3, #22
 8001c50:	6003      	str	r3, [r0, #0]
 8001c52:	f04f 30ff 	mov.w	r0, #4294967295	; 0xffffffff
 8001c56:	bd08      	pop	{r3, pc}

08001c58 <_exit>:
 8001c58:	b508      	push	{r3, lr}
 8001c5a:	f002 fdf9 	bl	8004850 <__errno>
 8001c5e:	2316      	movs	r3, #22
 8001c60:	6003      	str	r3, [r0, #0]
 8001c62:	e7fe      	b.n	8001c62 <_exit+0xa>

08001c64 <_sbrk>:
 8001c64:	490c      	ldr	r1, [pc, #48]	; (8001c98 <_sbrk+0x34>)
 8001c66:	4a0d      	ldr	r2, [pc, #52]	; (8001c9c <_sbrk+0x38>)
 8001c68:	680b      	ldr	r3, [r1, #0]
 8001c6a:	b510      	push	{r4, lr}
 8001c6c:	4c0c      	ldr	r4, [pc, #48]	; (8001ca0 <_sbrk+0x3c>)
 8001c6e:	1b12      	subs	r2, r2, r4
 8001c70:	b12b      	cbz	r3, 8001c7e <_sbrk+0x1a>
 8001c72:	4418      	add	r0, r3
 8001c74:	4290      	cmp	r0, r2
 8001c76:	d807      	bhi.n	8001c88 <_sbrk+0x24>
 8001c78:	6008      	str	r0, [r1, #0]
 8001c7a:	4618      	mov	r0, r3
 8001c7c:	bd10      	pop	{r4, pc}
 8001c7e:	4b09      	ldr	r3, [pc, #36]	; (8001ca4 <_sbrk+0x40>)
 8001c80:	600b      	str	r3, [r1, #0]
 8001c82:	4418      	add	r0, r3
 8001c84:	4290      	cmp	r0, r2
 8001c86:	d9f7      	bls.n	8001c78 <_sbrk+0x14>
 8001c88:	f002 fde2 	bl	8004850 <__errno>
 8001c8c:	230c      	movs	r3, #12
 8001c8e:	6003      	str	r3, [r0, #0]
 8001c90:	f04f 33ff 	mov.w	r3, #4294967295	; 0xffffffff
 8001c94:	4618      	mov	r0, r3
 8001c96:	bd10      	pop	{r4, pc}
 8001c98:	20000158 	.word	0x20000158
 8001c9c:	2000a000 	.word	0x2000a000
 8001ca0:	00000400 	.word	0x00000400
 8001ca4:	20000188 	.word	0x20000188

08001ca8 <SystemInit>:
 8001ca8:	4a03      	ldr	r2, [pc, #12]	; (8001cb8 <SystemInit+0x10>)
 8001caa:	f8d2 3088 	ldr.w	r3, [r2, #136]	; 0x88
 8001cae:	f443 0370 	orr.w	r3, r3, #15728640	; 0xf00000
 8001cb2:	f8c2 3088 	str.w	r3, [r2, #136]	; 0x88
 8001cb6:	4770      	bx	lr
 8001cb8:	e000ed00 	.word	0xe000ed00

08001cbc <Reset_Handler>:
 8001cbc:	f8df d034 	ldr.w	sp, [pc, #52]	; 8001cf4 <LoopForever+0x2>
 8001cc0:	f7ff fff2 	bl	8001ca8 <SystemInit>
 8001cc4:	480c      	ldr	r0, [pc, #48]	; (8001cf8 <LoopForever+0x6>)
 8001cc6:	490d      	ldr	r1, [pc, #52]	; (8001cfc <LoopForever+0xa>)
 8001cc8:	4a0d      	ldr	r2, [pc, #52]	; (8001d00 <LoopForever+0xe>)
 8001cca:	2300      	movs	r3, #0
 8001ccc:	e002      	b.n	8001cd4 <LoopCopyDataInit>

08001cce <CopyDataInit>:
 8001cce:	58d4      	ldr	r4, [r2, r3]
 8001cd0:	50c4      	str	r4, [r0, r3]
 8001cd2:	3304      	adds	r3, #4

08001cd4 <LoopCopyDataInit>:
 8001cd4:	18c4      	adds	r4, r0, r3
 8001cd6:	428c      	cmp	r4, r1
 8001cd8:	d3f9      	bcc.n	8001cce <CopyDataInit>
 8001cda:	4a0a      	ldr	r2, [pc, #40]	; (8001d04 <LoopForever+0x12>)
 8001cdc:	4c0a      	ldr	r4, [pc, #40]	; (8001d08 <LoopForever+0x16>)
 8001cde:	2300      	movs	r3, #0
 8001ce0:	e001      	b.n	8001ce6 <LoopFillZerobss>

08001ce2 <FillZerobss>:
 8001ce2:	6013      	str	r3, [r2, #0]
 8001ce4:	3204      	adds	r2, #4

08001ce6 <LoopFillZerobss>:
 8001ce6:	42a2      	cmp	r2, r4
 8001ce8:	d3fb      	bcc.n	8001ce2 <FillZerobss>
 8001cea:	f002 fdb7 	bl	800485c <__libc_init_array>
 8001cee:	f7ff fd17 	bl	8001720 <main>

08001cf2 <LoopForever>:
 8001cf2:	e7fe      	b.n	8001cf2 <LoopForever>
 8001cf4:	2000a000 	.word	0x2000a000
 8001cf8:	20000000 	.word	0x20000000
 8001cfc:	20000078 	.word	0x20000078
 8001d00:	08004dd0 	.word	0x08004dd0
 8001d04:	20000078 	.word	0x20000078
 8001d08:	20000188 	.word	0x20000188

08001d0c <ADC1_2_IRQHandler>:
 8001d0c:	e7fe      	b.n	8001d0c <ADC1_2_IRQHandler>
	...

08001d10 <HAL_InitTick>:
 8001d10:	b538      	push	{r3, r4, r5, lr}
 8001d12:	4b0f      	ldr	r3, [pc, #60]	; (8001d50 <HAL_InitTick+0x40>)
 8001d14:	781b      	ldrb	r3, [r3, #0]
 8001d16:	b90b      	cbnz	r3, 8001d1c <HAL_InitTick+0xc>
 8001d18:	2001      	movs	r0, #1
 8001d1a:	bd38      	pop	{r3, r4, r5, pc}
 8001d1c:	490d      	ldr	r1, [pc, #52]	; (8001d54 <HAL_InitTick+0x44>)
 8001d1e:	f44f 727a 	mov.w	r2, #1000	; 0x3e8
 8001d22:	4605      	mov	r5, r0
 8001d24:	fbb2 f3f3 	udiv	r3, r2, r3
 8001d28:	6808      	ldr	r0, [r1, #0]
 8001d2a:	fbb0 f0f3 	udiv	r0, r0, r3
 8001d2e:	f000 f891 	bl	8001e54 <HAL_SYSTICK_Config>
 8001d32:	4604      	mov	r4, r0
 8001d34:	2800      	cmp	r0, #0
 8001d36:	d1ef      	bne.n	8001d18 <HAL_InitTick+0x8>
 8001d38:	2d0f      	cmp	r5, #15
 8001d3a:	d8ed      	bhi.n	8001d18 <HAL_InitTick+0x8>
 8001d3c:	4602      	mov	r2, r0
 8001d3e:	4629      	mov	r1, r5
 8001d40:	f04f 30ff 	mov.w	r0, #4294967295	; 0xffffffff
 8001d44:	f000 f840 	bl	8001dc8 <HAL_NVIC_SetPriority>
 8001d48:	4b03      	ldr	r3, [pc, #12]	; (8001d58 <HAL_InitTick+0x48>)
 8001d4a:	4620      	mov	r0, r4
 8001d4c:	601d      	str	r5, [r3, #0]
 8001d4e:	bd38      	pop	{r3, r4, r5, pc}
 8001d50:	20000004 	.word	0x20000004
 8001d54:	20000000 	.word	0x20000000
 8001d58:	20000008 	.word	0x20000008

08001d5c <HAL_Init>:
 8001d5c:	b510      	push	{r4, lr}
 8001d5e:	2003      	movs	r0, #3
 8001d60:	f000 f81e 	bl	8001da0 <HAL_NVIC_SetPriorityGrouping>
 8001d64:	2000      	movs	r0, #0
 8001d66:	f7ff ffd3 	bl	8001d10 <HAL_InitTick>
 8001d6a:	b110      	cbz	r0, 8001d72 <HAL_Init+0x16>
 8001d6c:	2401      	movs	r4, #1
 8001d6e:	4620      	mov	r0, r4
 8001d70:	bd10      	pop	{r4, pc}
 8001d72:	4604      	mov	r4, r0
 8001d74:	f7ff fe8a 	bl	8001a8c <HAL_MspInit>
 8001d78:	4620      	mov	r0, r4
 8001d7a:	bd10      	pop	{r4, pc}

08001d7c <HAL_IncTick>:
 8001d7c:	4a03      	ldr	r2, [pc, #12]	; (8001d8c <HAL_IncTick+0x10>)
 8001d7e:	4b04      	ldr	r3, [pc, #16]	; (8001d90 <HAL_IncTick+0x14>)
 8001d80:	6811      	ldr	r1, [r2, #0]
 8001d82:	781b      	ldrb	r3, [r3, #0]
 8001d84:	440b      	add	r3, r1
 8001d86:	6013      	str	r3, [r2, #0]
 8001d88:	4770      	bx	lr
 8001d8a:	bf00      	nop
 8001d8c:	20000174 	.word	0x20000174
 8001d90:	20000004 	.word	0x20000004

08001d94 <HAL_GetTick>:
 8001d94:	4b01      	ldr	r3, [pc, #4]	; (8001d9c <HAL_GetTick+0x8>)
 8001d96:	6818      	ldr	r0, [r3, #0]
 8001d98:	4770      	bx	lr
 8001d9a:	bf00      	nop
 8001d9c:	20000174 	.word	0x20000174

08001da0 <HAL_NVIC_SetPriorityGrouping>:
 8001da0:	4908      	ldr	r1, [pc, #32]	; (8001dc4 <HAL_NVIC_SetPriorityGrouping+0x24>)
 8001da2:	68ca      	ldr	r2, [r1, #12]
 8001da4:	b410      	push	{r4}
 8001da6:	0200      	lsls	r0, r0, #8
 8001da8:	f64f 04ff 	movw	r4, #63743	; 0xf8ff
 8001dac:	4022      	ands	r2, r4
 8001dae:	f400 63e0 	and.w	r3, r0, #1792	; 0x700
 8001db2:	4313      	orrs	r3, r2
 8001db4:	f043 63bf 	orr.w	r3, r3, #100139008	; 0x5f80000
 8001db8:	f443 3300 	orr.w	r3, r3, #131072	; 0x20000
 8001dbc:	f85d 4b04 	ldr.w	r4, [sp], #4
 8001dc0:	60cb      	str	r3, [r1, #12]
 8001dc2:	4770      	bx	lr
 8001dc4:	e000ed00 	.word	0xe000ed00

08001dc8 <HAL_NVIC_SetPriority>:
 8001dc8:	4b19      	ldr	r3, [pc, #100]	; (8001e30 <HAL_NVIC_SetPriority+0x68>)
 8001dca:	68db      	ldr	r3, [r3, #12]
 8001dcc:	f3c3 2302 	ubfx	r3, r3, #8, #3
 8001dd0:	b430      	push	{r4, r5}
 8001dd2:	f1c3 0507 	rsb	r5, r3, #7
 8001dd6:	2d04      	cmp	r5, #4
 8001dd8:	f103 0404 	add.w	r4, r3, #4
 8001ddc:	bf28      	it	cs
 8001dde:	2504      	movcs	r5, #4
 8001de0:	2c06      	cmp	r4, #6
 8001de2:	d919      	bls.n	8001e18 <HAL_NVIC_SetPriority+0x50>
 8001de4:	3b03      	subs	r3, #3
 8001de6:	f04f 34ff 	mov.w	r4, #4294967295	; 0xffffffff
 8001dea:	409c      	lsls	r4, r3
 8001dec:	ea22 0204 	bic.w	r2, r2, r4
 8001df0:	f04f 34ff 	mov.w	r4, #4294967295	; 0xffffffff
 8001df4:	40ac      	lsls	r4, r5
 8001df6:	ea21 0104 	bic.w	r1, r1, r4
 8001dfa:	4099      	lsls	r1, r3
 8001dfc:	2800      	cmp	r0, #0
 8001dfe:	ea41 0102 	orr.w	r1, r1, r2
 8001e02:	db0c      	blt.n	8001e1e <HAL_NVIC_SetPriority+0x56>
 8001e04:	f100 4060 	add.w	r0, r0, #3758096384	; 0xe0000000
 8001e08:	f500 4061 	add.w	r0, r0, #57600	; 0xe100
 8001e0c:	0109      	lsls	r1, r1, #4
 8001e0e:	b2c9      	uxtb	r1, r1
 8001e10:	f880 1300 	strb.w	r1, [r0, #768]	; 0x300
 8001e14:	bc30      	pop	{r4, r5}
 8001e16:	4770      	bx	lr
 8001e18:	2200      	movs	r2, #0
 8001e1a:	4613      	mov	r3, r2
 8001e1c:	e7e8      	b.n	8001df0 <HAL_NVIC_SetPriority+0x28>
 8001e1e:	4b05      	ldr	r3, [pc, #20]	; (8001e34 <HAL_NVIC_SetPriority+0x6c>)
 8001e20:	f000 000f 	and.w	r0, r0, #15
 8001e24:	0109      	lsls	r1, r1, #4
 8001e26:	4403      	add	r3, r0
 8001e28:	b2c9      	uxtb	r1, r1
 8001e2a:	7619      	strb	r1, [r3, #24]
 8001e2c:	bc30      	pop	{r4, r5}
 8001e2e:	4770      	bx	lr
 8001e30:	e000ed00 	.word	0xe000ed00
 8001e34:	e000ecfc 	.word	0xe000ecfc

08001e38 <HAL_NVIC_EnableIRQ>:
 8001e38:	2800      	cmp	r0, #0
 8001e3a:	db07      	blt.n	8001e4c <HAL_NVIC_EnableIRQ+0x14>
 8001e3c:	4a04      	ldr	r2, [pc, #16]	; (8001e50 <HAL_NVIC_EnableIRQ+0x18>)
 8001e3e:	f000 011f 	and.w	r1, r0, #31
 8001e42:	2301      	movs	r3, #1
 8001e44:	0940      	lsrs	r0, r0, #5
 8001e46:	408b      	lsls	r3, r1
 8001e48:	f842 3020 	str.w	r3, [r2, r0, lsl #2]
 8001e4c:	4770      	bx	lr
 8001e4e:	bf00      	nop
 8001e50:	e000e100 	.word	0xe000e100

08001e54 <HAL_SYSTICK_Config>:
 8001e54:	3801      	subs	r0, #1
 8001e56:	f1b0 7f80 	cmp.w	r0, #16777216	; 0x1000000
 8001e5a:	d20e      	bcs.n	8001e7a <HAL_SYSTICK_Config+0x26>
 8001e5c:	4b08      	ldr	r3, [pc, #32]	; (8001e80 <HAL_SYSTICK_Config+0x2c>)
 8001e5e:	b410      	push	{r4}
 8001e60:	4c08      	ldr	r4, [pc, #32]	; (8001e84 <HAL_SYSTICK_Config+0x30>)
 8001e62:	6058      	str	r0, [r3, #4]
 8001e64:	20f0      	movs	r0, #240	; 0xf0
 8001e66:	f884 0023 	strb.w	r0, [r4, #35]	; 0x23
 8001e6a:	2200      	movs	r2, #0
 8001e6c:	2107      	movs	r1, #7
 8001e6e:	4610      	mov	r0, r2
 8001e70:	609a      	str	r2, [r3, #8]
 8001e72:	f85d 4b04 	ldr.w	r4, [sp], #4
 8001e76:	6019      	str	r1, [r3, #0]
 8001e78:	4770      	bx	lr
 8001e7a:	2001      	movs	r0, #1
 8001e7c:	4770      	bx	lr
 8001e7e:	bf00      	nop
 8001e80:	e000e010 	.word	0xe000e010
 8001e84:	e000ed00 	.word	0xe000ed00

08001e88 <HAL_GPIO_Init>:
 8001e88:	e92d 4ff0 	stmdb	sp!, {r4, r5, r6, r7, r8, r9, sl, fp, lr}
 8001e8c:	680c      	ldr	r4, [r1, #0]
 8001e8e:	b085      	sub	sp, #20
 8001e90:	2c00      	cmp	r4, #0
 8001e92:	f000 80c7 	beq.w	8002024 <HAL_GPIO_Init+0x19c>
 8001e96:	2300      	movs	r3, #0
 8001e98:	f04f 0b01 	mov.w	fp, #1
 8001e9c:	e06a      	b.n	8001f74 <HAL_GPIO_Init+0xec>
 8001e9e:	2a03      	cmp	r2, #3
 8001ea0:	f040 80bb 	bne.w	800201a <HAL_GPIO_Init+0x192>
 8001ea4:	fa02 f20c 	lsl.w	r2, r2, ip
 8001ea8:	43d6      	mvns	r6, r2
 8001eaa:	f8d0 c000 	ldr.w	ip, [r0]
 8001eae:	ea0c 0606 	and.w	r6, ip, r6
 8001eb2:	4332      	orrs	r2, r6
 8001eb4:	f415 3f40 	tst.w	r5, #196608	; 0x30000
 8001eb8:	6002      	str	r2, [r0, #0]
 8001eba:	d057      	beq.n	8001f6c <HAL_GPIO_Init+0xe4>
 8001ebc:	4e61      	ldr	r6, [pc, #388]	; (8002044 <HAL_GPIO_Init+0x1bc>)
 8001ebe:	6e32      	ldr	r2, [r6, #96]	; 0x60
 8001ec0:	f042 0201 	orr.w	r2, r2, #1
 8001ec4:	6632      	str	r2, [r6, #96]	; 0x60
 8001ec6:	6e32      	ldr	r2, [r6, #96]	; 0x60
 8001ec8:	f023 0603 	bic.w	r6, r3, #3
 8001ecc:	f106 4680 	add.w	r6, r6, #1073741824	; 0x40000000
 8001ed0:	f002 0201 	and.w	r2, r2, #1
 8001ed4:	f506 3680 	add.w	r6, r6, #65536	; 0x10000
 8001ed8:	9203      	str	r2, [sp, #12]
 8001eda:	f003 0203 	and.w	r2, r3, #3
 8001ede:	f8dd c00c 	ldr.w	ip, [sp, #12]
 8001ee2:	f8d6 c008 	ldr.w	ip, [r6, #8]
 8001ee6:	0092      	lsls	r2, r2, #2
 8001ee8:	270f      	movs	r7, #15
 8001eea:	fa07 fe02 	lsl.w	lr, r7, r2
 8001eee:	f1b0 4f90 	cmp.w	r0, #1207959552	; 0x48000000
 8001ef2:	ea2c 0c0e 	bic.w	ip, ip, lr
 8001ef6:	d010      	beq.n	8001f1a <HAL_GPIO_Init+0x92>
 8001ef8:	4f53      	ldr	r7, [pc, #332]	; (8002048 <HAL_GPIO_Init+0x1c0>)
 8001efa:	42b8      	cmp	r0, r7
 8001efc:	f000 8095 	beq.w	800202a <HAL_GPIO_Init+0x1a2>
 8001f00:	4f52      	ldr	r7, [pc, #328]	; (800204c <HAL_GPIO_Init+0x1c4>)
 8001f02:	42b8      	cmp	r0, r7
 8001f04:	f000 8096 	beq.w	8002034 <HAL_GPIO_Init+0x1ac>
 8001f08:	4f51      	ldr	r7, [pc, #324]	; (8002050 <HAL_GPIO_Init+0x1c8>)
 8001f0a:	42b8      	cmp	r0, r7
 8001f0c:	bf0c      	ite	eq
 8001f0e:	2703      	moveq	r7, #3
 8001f10:	2707      	movne	r7, #7
 8001f12:	fa07 f202 	lsl.w	r2, r7, r2
 8001f16:	ea4c 0c02 	orr.w	ip, ip, r2
 8001f1a:	4a4e      	ldr	r2, [pc, #312]	; (8002054 <HAL_GPIO_Init+0x1cc>)
 8001f1c:	f8c6 c008 	str.w	ip, [r6, #8]
 8001f20:	6892      	ldr	r2, [r2, #8]
 8001f22:	02ee      	lsls	r6, r5, #11
 8001f24:	ea6f 0c0a 	mvn.w	ip, sl
 8001f28:	4e4a      	ldr	r6, [pc, #296]	; (8002054 <HAL_GPIO_Init+0x1cc>)
 8001f2a:	bf54      	ite	pl
 8001f2c:	ea0c 0202 	andpl.w	r2, ip, r2
 8001f30:	ea4a 0202 	orrmi.w	r2, sl, r2
 8001f34:	60b2      	str	r2, [r6, #8]
 8001f36:	68f6      	ldr	r6, [r6, #12]
 8001f38:	02aa      	lsls	r2, r5, #10
 8001f3a:	4a46      	ldr	r2, [pc, #280]	; (8002054 <HAL_GPIO_Init+0x1cc>)
 8001f3c:	bf54      	ite	pl
 8001f3e:	ea0c 0606 	andpl.w	r6, ip, r6
 8001f42:	ea4a 0606 	orrmi.w	r6, sl, r6
 8001f46:	60d6      	str	r6, [r2, #12]
 8001f48:	6856      	ldr	r6, [r2, #4]
 8001f4a:	4a42      	ldr	r2, [pc, #264]	; (8002054 <HAL_GPIO_Init+0x1cc>)
 8001f4c:	03af      	lsls	r7, r5, #14
 8001f4e:	bf54      	ite	pl
 8001f50:	ea0c 0606 	andpl.w	r6, ip, r6
 8001f54:	ea4a 0606 	orrmi.w	r6, sl, r6
 8001f58:	6056      	str	r6, [r2, #4]
 8001f5a:	6812      	ldr	r2, [r2, #0]
 8001f5c:	03ed      	lsls	r5, r5, #15
 8001f5e:	4d3d      	ldr	r5, [pc, #244]	; (8002054 <HAL_GPIO_Init+0x1cc>)
 8001f60:	bf54      	ite	pl
 8001f62:	ea0c 0202 	andpl.w	r2, ip, r2
 8001f66:	ea4a 0202 	orrmi.w	r2, sl, r2
 8001f6a:	602a      	str	r2, [r5, #0]
 8001f6c:	3301      	adds	r3, #1
 8001f6e:	fa34 f203 	lsrs.w	r2, r4, r3
 8001f72:	d057      	beq.n	8002024 <HAL_GPIO_Init+0x19c>
 8001f74:	fa0b fe03 	lsl.w	lr, fp, r3
 8001f78:	ea1e 0a04 	ands.w	sl, lr, r4
 8001f7c:	d0f6      	beq.n	8001f6c <HAL_GPIO_Init+0xe4>
 8001f7e:	684d      	ldr	r5, [r1, #4]
 8001f80:	f005 0203 	and.w	r2, r5, #3
 8001f84:	1e56      	subs	r6, r2, #1
 8001f86:	2e01      	cmp	r6, #1
 8001f88:	ea4f 0c43 	mov.w	ip, r3, lsl #1
 8001f8c:	d887      	bhi.n	8001e9e <HAL_GPIO_Init+0x16>
 8001f8e:	f8d0 8008 	ldr.w	r8, [r0, #8]
 8001f92:	68cf      	ldr	r7, [r1, #12]
 8001f94:	2603      	movs	r6, #3
 8001f96:	fa06 f60c 	lsl.w	r6, r6, ip
 8001f9a:	ea28 0806 	bic.w	r8, r8, r6
 8001f9e:	fa07 f90c 	lsl.w	r9, r7, ip
 8001fa2:	ea49 0808 	orr.w	r8, r9, r8
 8001fa6:	f8c0 8008 	str.w	r8, [r0, #8]
 8001faa:	f8d0 8004 	ldr.w	r8, [r0, #4]
 8001fae:	f3c5 1900 	ubfx	r9, r5, #4, #1
 8001fb2:	ea28 080e 	bic.w	r8, r8, lr
 8001fb6:	fa09 fe03 	lsl.w	lr, r9, r3
 8001fba:	ea4e 0e08 	orr.w	lr, lr, r8
 8001fbe:	43f6      	mvns	r6, r6
 8001fc0:	f8c0 e004 	str.w	lr, [r0, #4]
 8001fc4:	f8d0 800c 	ldr.w	r8, [r0, #12]
 8001fc8:	688f      	ldr	r7, [r1, #8]
 8001fca:	ea08 0806 	and.w	r8, r8, r6
 8001fce:	fa07 fe0c 	lsl.w	lr, r7, ip
 8001fd2:	ea4e 0e08 	orr.w	lr, lr, r8
 8001fd6:	2a02      	cmp	r2, #2
 8001fd8:	f8c0 e00c 	str.w	lr, [r0, #12]
 8001fdc:	d002      	beq.n	8001fe4 <HAL_GPIO_Init+0x15c>
 8001fde:	fa02 f20c 	lsl.w	r2, r2, ip
 8001fe2:	e762      	b.n	8001eaa <HAL_GPIO_Init+0x22>
 8001fe4:	ea4f 08d3 	mov.w	r8, r3, lsr #3
 8001fe8:	eb00 0888 	add.w	r8, r0, r8, lsl #2
 8001fec:	f003 0e07 	and.w	lr, r3, #7
 8001ff0:	f8d8 7020 	ldr.w	r7, [r8, #32]
 8001ff4:	9701      	str	r7, [sp, #4]
 8001ff6:	690f      	ldr	r7, [r1, #16]
 8001ff8:	ea4f 0e8e 	mov.w	lr, lr, lsl #2
 8001ffc:	fa07 f90e 	lsl.w	r9, r7, lr
 8002000:	270f      	movs	r7, #15
 8002002:	fa07 fe0e 	lsl.w	lr, r7, lr
 8002006:	9f01      	ldr	r7, [sp, #4]
 8002008:	ea27 0e0e 	bic.w	lr, r7, lr
 800200c:	ea49 0e0e 	orr.w	lr, r9, lr
 8002010:	fa02 f20c 	lsl.w	r2, r2, ip
 8002014:	f8c8 e020 	str.w	lr, [r8, #32]
 8002018:	e747      	b.n	8001eaa <HAL_GPIO_Init+0x22>
 800201a:	2603      	movs	r6, #3
 800201c:	fa06 f60c 	lsl.w	r6, r6, ip
 8002020:	43f6      	mvns	r6, r6
 8002022:	e7cf      	b.n	8001fc4 <HAL_GPIO_Init+0x13c>
 8002024:	b005      	add	sp, #20
 8002026:	e8bd 8ff0 	ldmia.w	sp!, {r4, r5, r6, r7, r8, r9, sl, fp, pc}
 800202a:	fa0b f202 	lsl.w	r2, fp, r2
 800202e:	ea4c 0c02 	orr.w	ip, ip, r2
 8002032:	e772      	b.n	8001f1a <HAL_GPIO_Init+0x92>
 8002034:	f04f 0e02 	mov.w	lr, #2
 8002038:	fa0e f202 	lsl.w	r2, lr, r2
 800203c:	ea4c 0c02 	orr.w	ip, ip, r2
 8002040:	e76b      	b.n	8001f1a <HAL_GPIO_Init+0x92>
 8002042:	bf00      	nop
 8002044:	40021000 	.word	0x40021000
 8002048:	48000400 	.word	0x48000400
 800204c:	48000800 	.word	0x48000800
 8002050:	48000c00 	.word	0x48000c00
 8002054:	40010400 	.word	0x40010400

08002058 <HAL_GPIO_ReadPin>:
 8002058:	6903      	ldr	r3, [r0, #16]
 800205a:	4219      	tst	r1, r3
 800205c:	bf14      	ite	ne
 800205e:	2001      	movne	r0, #1
 8002060:	2000      	moveq	r0, #0
 8002062:	4770      	bx	lr

08002064 <HAL_GPIO_WritePin>:
 8002064:	b10a      	cbz	r2, 800206a <HAL_GPIO_WritePin+0x6>
 8002066:	6181      	str	r1, [r0, #24]
 8002068:	4770      	bx	lr
 800206a:	6281      	str	r1, [r0, #40]	; 0x28
 800206c:	4770      	bx	lr
 800206e:	bf00      	nop

08002070 <HAL_GPIO_TogglePin>:
 8002070:	6943      	ldr	r3, [r0, #20]
 8002072:	ea01 0203 	and.w	r2, r1, r3
 8002076:	ea21 0103 	bic.w	r1, r1, r3
 800207a:	ea41 4102 	orr.w	r1, r1, r2, lsl #16
 800207e:	6181      	str	r1, [r0, #24]
 8002080:	4770      	bx	lr
 8002082:	bf00      	nop

08002084 <HAL_GPIO_EXTI_IRQHandler>:
 8002084:	4a04      	ldr	r2, [pc, #16]	; (8002098 <HAL_GPIO_EXTI_IRQHandler+0x14>)
 8002086:	6951      	ldr	r1, [r2, #20]
 8002088:	4201      	tst	r1, r0
 800208a:	d100      	bne.n	800208e <HAL_GPIO_EXTI_IRQHandler+0xa>
 800208c:	4770      	bx	lr
 800208e:	b508      	push	{r3, lr}
 8002090:	6150      	str	r0, [r2, #20]
 8002092:	f7ff fcd3 	bl	8001a3c <HAL_GPIO_EXTI_Callback>
 8002096:	bd08      	pop	{r3, pc}
 8002098:	40010400 	.word	0x40010400

0800209c <HAL_PWREx_GetVoltageRange>:
 800209c:	4b02      	ldr	r3, [pc, #8]	; (80020a8 <HAL_PWREx_GetVoltageRange+0xc>)
 800209e:	6818      	ldr	r0, [r3, #0]
 80020a0:	f400 60c0 	and.w	r0, r0, #1536	; 0x600
 80020a4:	4770      	bx	lr
 80020a6:	bf00      	nop
 80020a8:	40007000 	.word	0x40007000

080020ac <HAL_PWREx_ControlVoltageScaling>:
 80020ac:	f5b0 7f00 	cmp.w	r0, #512	; 0x200
 80020b0:	d00e      	beq.n	80020d0 <HAL_PWREx_ControlVoltageScaling+0x24>
 80020b2:	4a1f      	ldr	r2, [pc, #124]	; (8002130 <HAL_PWREx_ControlVoltageScaling+0x84>)
 80020b4:	6813      	ldr	r3, [r2, #0]
 80020b6:	f403 63c0 	and.w	r3, r3, #1536	; 0x600
 80020ba:	f5b3 6f80 	cmp.w	r3, #1024	; 0x400
 80020be:	d032      	beq.n	8002126 <HAL_PWREx_ControlVoltageScaling+0x7a>
 80020c0:	6813      	ldr	r3, [r2, #0]
 80020c2:	f423 63c0 	bic.w	r3, r3, #1536	; 0x600
 80020c6:	f443 6380 	orr.w	r3, r3, #1024	; 0x400
 80020ca:	6013      	str	r3, [r2, #0]
 80020cc:	2000      	movs	r0, #0
 80020ce:	4770      	bx	lr
 80020d0:	4917      	ldr	r1, [pc, #92]	; (8002130 <HAL_PWREx_ControlVoltageScaling+0x84>)
 80020d2:	680b      	ldr	r3, [r1, #0]
 80020d4:	f403 63c0 	and.w	r3, r3, #1536	; 0x600
 80020d8:	f5b3 7f00 	cmp.w	r3, #512	; 0x200
 80020dc:	d023      	beq.n	8002126 <HAL_PWREx_ControlVoltageScaling+0x7a>
 80020de:	680a      	ldr	r2, [r1, #0]
 80020e0:	4b14      	ldr	r3, [pc, #80]	; (8002134 <HAL_PWREx_ControlVoltageScaling+0x88>)
 80020e2:	4815      	ldr	r0, [pc, #84]	; (8002138 <HAL_PWREx_ControlVoltageScaling+0x8c>)
 80020e4:	f422 62c0 	bic.w	r2, r2, #1536	; 0x600
 80020e8:	f442 7200 	orr.w	r2, r2, #512	; 0x200
 80020ec:	b410      	push	{r4}
 80020ee:	600a      	str	r2, [r1, #0]
 80020f0:	681c      	ldr	r4, [r3, #0]
 80020f2:	694a      	ldr	r2, [r1, #20]
 80020f4:	2332      	movs	r3, #50	; 0x32
 80020f6:	fb03 f304 	mul.w	r3, r3, r4
 80020fa:	fba0 0303 	umull	r0, r3, r0, r3
 80020fe:	0c9b      	lsrs	r3, r3, #18
 8002100:	0550      	lsls	r0, r2, #21
 8002102:	f103 0301 	add.w	r3, r3, #1
 8002106:	d506      	bpl.n	8002116 <HAL_PWREx_ControlVoltageScaling+0x6a>
 8002108:	e000      	b.n	800210c <HAL_PWREx_ControlVoltageScaling+0x60>
 800210a:	b123      	cbz	r3, 8002116 <HAL_PWREx_ControlVoltageScaling+0x6a>
 800210c:	694a      	ldr	r2, [r1, #20]
 800210e:	0552      	lsls	r2, r2, #21
 8002110:	f103 33ff 	add.w	r3, r3, #4294967295	; 0xffffffff
 8002114:	d4f9      	bmi.n	800210a <HAL_PWREx_ControlVoltageScaling+0x5e>
 8002116:	4b06      	ldr	r3, [pc, #24]	; (8002130 <HAL_PWREx_ControlVoltageScaling+0x84>)
 8002118:	695b      	ldr	r3, [r3, #20]
 800211a:	055b      	lsls	r3, r3, #21
 800211c:	d405      	bmi.n	800212a <HAL_PWREx_ControlVoltageScaling+0x7e>
 800211e:	2000      	movs	r0, #0
 8002120:	f85d 4b04 	ldr.w	r4, [sp], #4
 8002124:	4770      	bx	lr
 8002126:	2000      	movs	r0, #0
 8002128:	4770      	bx	lr
 800212a:	2003      	movs	r0, #3
 800212c:	e7f8      	b.n	8002120 <HAL_PWREx_ControlVoltageScaling+0x74>
 800212e:	bf00      	nop
 8002130:	40007000 	.word	0x40007000
 8002134:	20000000 	.word	0x20000000
 8002138:	431bde83 	.word	0x431bde83

0800213c <RCC_SetFlashLatencyFromMSIRange>:
 800213c:	b530      	push	{r4, r5, lr}
 800213e:	4d20      	ldr	r5, [pc, #128]	; (80021c0 <RCC_SetFlashLatencyFromMSIRange+0x84>)
 8002140:	6dab      	ldr	r3, [r5, #88]	; 0x58
 8002142:	00db      	lsls	r3, r3, #3
 8002144:	b083      	sub	sp, #12
 8002146:	4604      	mov	r4, r0
 8002148:	d51c      	bpl.n	8002184 <RCC_SetFlashLatencyFromMSIRange+0x48>
 800214a:	f7ff ffa7 	bl	800209c <HAL_PWREx_GetVoltageRange>
 800214e:	f5b0 7f00 	cmp.w	r0, #512	; 0x200
 8002152:	d029      	beq.n	80021a8 <RCC_SetFlashLatencyFromMSIRange+0x6c>
 8002154:	2c80      	cmp	r4, #128	; 0x80
 8002156:	d813      	bhi.n	8002180 <RCC_SetFlashLatencyFromMSIRange+0x44>
 8002158:	d02f      	beq.n	80021ba <RCC_SetFlashLatencyFromMSIRange+0x7e>
 800215a:	f1a4 0470 	sub.w	r4, r4, #112	; 0x70
 800215e:	fab4 f484 	clz	r4, r4
 8002162:	0964      	lsrs	r4, r4, #5
 8002164:	4917      	ldr	r1, [pc, #92]	; (80021c4 <RCC_SetFlashLatencyFromMSIRange+0x88>)
 8002166:	680b      	ldr	r3, [r1, #0]
 8002168:	f023 0307 	bic.w	r3, r3, #7
 800216c:	4323      	orrs	r3, r4
 800216e:	600b      	str	r3, [r1, #0]
 8002170:	6808      	ldr	r0, [r1, #0]
 8002172:	f000 0007 	and.w	r0, r0, #7
 8002176:	1b00      	subs	r0, r0, r4
 8002178:	bf18      	it	ne
 800217a:	2001      	movne	r0, #1
 800217c:	b003      	add	sp, #12
 800217e:	bd30      	pop	{r4, r5, pc}
 8002180:	2403      	movs	r4, #3
 8002182:	e7ef      	b.n	8002164 <RCC_SetFlashLatencyFromMSIRange+0x28>
 8002184:	6dab      	ldr	r3, [r5, #88]	; 0x58
 8002186:	f043 5380 	orr.w	r3, r3, #268435456	; 0x10000000
 800218a:	65ab      	str	r3, [r5, #88]	; 0x58
 800218c:	6dab      	ldr	r3, [r5, #88]	; 0x58
 800218e:	f003 5380 	and.w	r3, r3, #268435456	; 0x10000000
 8002192:	9301      	str	r3, [sp, #4]
 8002194:	9b01      	ldr	r3, [sp, #4]
 8002196:	f7ff ff81 	bl	800209c <HAL_PWREx_GetVoltageRange>
 800219a:	6dab      	ldr	r3, [r5, #88]	; 0x58
 800219c:	f5b0 7f00 	cmp.w	r0, #512	; 0x200
 80021a0:	f023 5380 	bic.w	r3, r3, #268435456	; 0x10000000
 80021a4:	65ab      	str	r3, [r5, #88]	; 0x58
 80021a6:	d1d5      	bne.n	8002154 <RCC_SetFlashLatencyFromMSIRange+0x18>
 80021a8:	2c80      	cmp	r4, #128	; 0x80
 80021aa:	d904      	bls.n	80021b6 <RCC_SetFlashLatencyFromMSIRange+0x7a>
 80021ac:	2ca0      	cmp	r4, #160	; 0xa0
 80021ae:	bf8c      	ite	hi
 80021b0:	2402      	movhi	r4, #2
 80021b2:	2401      	movls	r4, #1
 80021b4:	e7d6      	b.n	8002164 <RCC_SetFlashLatencyFromMSIRange+0x28>
 80021b6:	2400      	movs	r4, #0
 80021b8:	e7d4      	b.n	8002164 <RCC_SetFlashLatencyFromMSIRange+0x28>
 80021ba:	2402      	movs	r4, #2
 80021bc:	e7d2      	b.n	8002164 <RCC_SetFlashLatencyFromMSIRange+0x28>
 80021be:	bf00      	nop
 80021c0:	40021000 	.word	0x40021000
 80021c4:	40022000 	.word	0x40022000

080021c8 <HAL_RCC_GetSysClockFreq>:
 80021c8:	4a28      	ldr	r2, [pc, #160]	; (800226c <HAL_RCC_GetSysClockFreq+0xa4>)
 80021ca:	6893      	ldr	r3, [r2, #8]
 80021cc:	68d2      	ldr	r2, [r2, #12]
 80021ce:	f013 030c 	ands.w	r3, r3, #12
 80021d2:	d008      	beq.n	80021e6 <HAL_RCC_GetSysClockFreq+0x1e>
 80021d4:	2b0c      	cmp	r3, #12
 80021d6:	d038      	beq.n	800224a <HAL_RCC_GetSysClockFreq+0x82>
 80021d8:	2b04      	cmp	r3, #4
 80021da:	d034      	beq.n	8002246 <HAL_RCC_GetSysClockFreq+0x7e>
 80021dc:	2b08      	cmp	r3, #8
 80021de:	4824      	ldr	r0, [pc, #144]	; (8002270 <HAL_RCC_GetSysClockFreq+0xa8>)
 80021e0:	bf18      	it	ne
 80021e2:	2000      	movne	r0, #0
 80021e4:	4770      	bx	lr
 80021e6:	4a21      	ldr	r2, [pc, #132]	; (800226c <HAL_RCC_GetSysClockFreq+0xa4>)
 80021e8:	6811      	ldr	r1, [r2, #0]
 80021ea:	0709      	lsls	r1, r1, #28
 80021ec:	bf54      	ite	pl
 80021ee:	f8d2 2094 	ldrpl.w	r2, [r2, #148]	; 0x94
 80021f2:	6812      	ldrmi	r2, [r2, #0]
 80021f4:	491f      	ldr	r1, [pc, #124]	; (8002274 <HAL_RCC_GetSysClockFreq+0xac>)
 80021f6:	bf54      	ite	pl
 80021f8:	f3c2 2203 	ubfxpl	r2, r2, #8, #4
 80021fc:	f3c2 1203 	ubfxmi	r2, r2, #4, #4
 8002200:	f851 0022 	ldr.w	r0, [r1, r2, lsl #2]
 8002204:	b303      	cbz	r3, 8002248 <HAL_RCC_GetSysClockFreq+0x80>
 8002206:	2b0c      	cmp	r3, #12
 8002208:	d12d      	bne.n	8002266 <HAL_RCC_GetSysClockFreq+0x9e>
 800220a:	4b18      	ldr	r3, [pc, #96]	; (800226c <HAL_RCC_GetSysClockFreq+0xa4>)
 800220c:	68db      	ldr	r3, [r3, #12]
 800220e:	f003 0303 	and.w	r3, r3, #3
 8002212:	2b02      	cmp	r3, #2
 8002214:	d025      	beq.n	8002262 <HAL_RCC_GetSysClockFreq+0x9a>
 8002216:	4a16      	ldr	r2, [pc, #88]	; (8002270 <HAL_RCC_GetSysClockFreq+0xa8>)
 8002218:	2b03      	cmp	r3, #3
 800221a:	bf08      	it	eq
 800221c:	4610      	moveq	r0, r2
 800221e:	4b13      	ldr	r3, [pc, #76]	; (800226c <HAL_RCC_GetSysClockFreq+0xa4>)
 8002220:	68d9      	ldr	r1, [r3, #12]
 8002222:	68da      	ldr	r2, [r3, #12]
 8002224:	68db      	ldr	r3, [r3, #12]
 8002226:	f3c3 6341 	ubfx	r3, r3, #25, #2
 800222a:	f3c2 2206 	ubfx	r2, r2, #8, #7
 800222e:	f3c1 1102 	ubfx	r1, r1, #4, #3
 8002232:	3301      	adds	r3, #1
 8002234:	3101      	adds	r1, #1
 8002236:	fb00 f002 	mul.w	r0, r0, r2
 800223a:	005b      	lsls	r3, r3, #1
 800223c:	fbb0 f0f1 	udiv	r0, r0, r1
 8002240:	fbb0 f0f3 	udiv	r0, r0, r3
 8002244:	4770      	bx	lr
 8002246:	480c      	ldr	r0, [pc, #48]	; (8002278 <HAL_RCC_GetSysClockFreq+0xb0>)
 8002248:	4770      	bx	lr
 800224a:	f002 0203 	and.w	r2, r2, #3
 800224e:	2a01      	cmp	r2, #1
 8002250:	d0c9      	beq.n	80021e6 <HAL_RCC_GetSysClockFreq+0x1e>
 8002252:	4b06      	ldr	r3, [pc, #24]	; (800226c <HAL_RCC_GetSysClockFreq+0xa4>)
 8002254:	68db      	ldr	r3, [r3, #12]
 8002256:	f003 0303 	and.w	r3, r3, #3
 800225a:	2b02      	cmp	r3, #2
 800225c:	f04f 0000 	mov.w	r0, #0
 8002260:	d1d9      	bne.n	8002216 <HAL_RCC_GetSysClockFreq+0x4e>
 8002262:	4805      	ldr	r0, [pc, #20]	; (8002278 <HAL_RCC_GetSysClockFreq+0xb0>)
 8002264:	e7db      	b.n	800221e <HAL_RCC_GetSysClockFreq+0x56>
 8002266:	2000      	movs	r0, #0
 8002268:	4770      	bx	lr
 800226a:	bf00      	nop
 800226c:	40021000 	.word	0x40021000
 8002270:	007a1200 	.word	0x007a1200
 8002274:	08004b3c 	.word	0x08004b3c
 8002278:	00f42400 	.word	0x00f42400

0800227c <HAL_RCC_OscConfig>:
 800227c:	2800      	cmp	r0, #0
 800227e:	f000 8220 	beq.w	80026c2 <HAL_RCC_OscConfig+0x446>
 8002282:	e92d 43f0 	stmdb	sp!, {r4, r5, r6, r7, r8, r9, lr}
 8002286:	4aa5      	ldr	r2, [pc, #660]	; (800251c <HAL_RCC_OscConfig+0x2a0>)
 8002288:	6803      	ldr	r3, [r0, #0]
 800228a:	6895      	ldr	r5, [r2, #8]
 800228c:	68d6      	ldr	r6, [r2, #12]
 800228e:	06df      	lsls	r7, r3, #27
 8002290:	b083      	sub	sp, #12
 8002292:	4604      	mov	r4, r0
 8002294:	f005 050c 	and.w	r5, r5, #12
 8002298:	f006 0603 	and.w	r6, r6, #3
 800229c:	d52e      	bpl.n	80022fc <HAL_RCC_OscConfig+0x80>
 800229e:	2d00      	cmp	r5, #0
 80022a0:	f000 8143 	beq.w	800252a <HAL_RCC_OscConfig+0x2ae>
 80022a4:	2d0c      	cmp	r5, #12
 80022a6:	f000 813d 	beq.w	8002524 <HAL_RCC_OscConfig+0x2a8>
 80022aa:	69e3      	ldr	r3, [r4, #28]
 80022ac:	4f9b      	ldr	r7, [pc, #620]	; (800251c <HAL_RCC_OscConfig+0x2a0>)
 80022ae:	2b00      	cmp	r3, #0
 80022b0:	f000 81b3 	beq.w	800261a <HAL_RCC_OscConfig+0x39e>
 80022b4:	683b      	ldr	r3, [r7, #0]
 80022b6:	f043 0301 	orr.w	r3, r3, #1
 80022ba:	603b      	str	r3, [r7, #0]
 80022bc:	f7ff fd6a 	bl	8001d94 <HAL_GetTick>
 80022c0:	4680      	mov	r8, r0
 80022c2:	e006      	b.n	80022d2 <HAL_RCC_OscConfig+0x56>
 80022c4:	f7ff fd66 	bl	8001d94 <HAL_GetTick>
 80022c8:	eba0 0008 	sub.w	r0, r0, r8
 80022cc:	2802      	cmp	r0, #2
 80022ce:	f200 81b4 	bhi.w	800263a <HAL_RCC_OscConfig+0x3be>
 80022d2:	683b      	ldr	r3, [r7, #0]
 80022d4:	079a      	lsls	r2, r3, #30
 80022d6:	d5f5      	bpl.n	80022c4 <HAL_RCC_OscConfig+0x48>
 80022d8:	683b      	ldr	r3, [r7, #0]
 80022da:	f043 0308 	orr.w	r3, r3, #8
 80022de:	603b      	str	r3, [r7, #0]
 80022e0:	683b      	ldr	r3, [r7, #0]
 80022e2:	6a62      	ldr	r2, [r4, #36]	; 0x24
 80022e4:	f023 03f0 	bic.w	r3, r3, #240	; 0xf0
 80022e8:	4313      	orrs	r3, r2
 80022ea:	603b      	str	r3, [r7, #0]
 80022ec:	687b      	ldr	r3, [r7, #4]
 80022ee:	6a22      	ldr	r2, [r4, #32]
 80022f0:	f423 437f 	bic.w	r3, r3, #65280	; 0xff00
 80022f4:	ea43 2302 	orr.w	r3, r3, r2, lsl #8
 80022f8:	607b      	str	r3, [r7, #4]
 80022fa:	6823      	ldr	r3, [r4, #0]
 80022fc:	07d8      	lsls	r0, r3, #31
 80022fe:	f100 80e4 	bmi.w	80024ca <HAL_RCC_OscConfig+0x24e>
 8002302:	0798      	lsls	r0, r3, #30
 8002304:	d523      	bpl.n	800234e <HAL_RCC_OscConfig+0xd2>
 8002306:	2d04      	cmp	r5, #4
 8002308:	f000 8163 	beq.w	80025d2 <HAL_RCC_OscConfig+0x356>
 800230c:	2d0c      	cmp	r5, #12
 800230e:	f000 815d 	beq.w	80025cc <HAL_RCC_OscConfig+0x350>
 8002312:	68e3      	ldr	r3, [r4, #12]
 8002314:	4e81      	ldr	r6, [pc, #516]	; (800251c <HAL_RCC_OscConfig+0x2a0>)
 8002316:	2b00      	cmp	r3, #0
 8002318:	f000 81aa 	beq.w	8002670 <HAL_RCC_OscConfig+0x3f4>
 800231c:	6833      	ldr	r3, [r6, #0]
 800231e:	f443 7380 	orr.w	r3, r3, #256	; 0x100
 8002322:	6033      	str	r3, [r6, #0]
 8002324:	f7ff fd36 	bl	8001d94 <HAL_GetTick>
 8002328:	4607      	mov	r7, r0
 800232a:	e005      	b.n	8002338 <HAL_RCC_OscConfig+0xbc>
 800232c:	f7ff fd32 	bl	8001d94 <HAL_GetTick>
 8002330:	1bc0      	subs	r0, r0, r7
 8002332:	2802      	cmp	r0, #2
 8002334:	f200 8181 	bhi.w	800263a <HAL_RCC_OscConfig+0x3be>
 8002338:	6833      	ldr	r3, [r6, #0]
 800233a:	055a      	lsls	r2, r3, #21
 800233c:	d5f6      	bpl.n	800232c <HAL_RCC_OscConfig+0xb0>
 800233e:	6873      	ldr	r3, [r6, #4]
 8002340:	6922      	ldr	r2, [r4, #16]
 8002342:	f023 43fe 	bic.w	r3, r3, #2130706432	; 0x7f000000
 8002346:	ea43 6302 	orr.w	r3, r3, r2, lsl #24
 800234a:	6073      	str	r3, [r6, #4]
 800234c:	6823      	ldr	r3, [r4, #0]
 800234e:	071e      	lsls	r6, r3, #28
 8002350:	d531      	bpl.n	80023b6 <HAL_RCC_OscConfig+0x13a>
 8002352:	6963      	ldr	r3, [r4, #20]
 8002354:	4e71      	ldr	r6, [pc, #452]	; (800251c <HAL_RCC_OscConfig+0x2a0>)
 8002356:	2b00      	cmp	r3, #0
 8002358:	f000 814b 	beq.w	80025f2 <HAL_RCC_OscConfig+0x376>
 800235c:	f8d6 3094 	ldr.w	r3, [r6, #148]	; 0x94
 8002360:	69a2      	ldr	r2, [r4, #24]
 8002362:	f003 0110 	and.w	r1, r3, #16
 8002366:	428a      	cmp	r2, r1
 8002368:	d00f      	beq.n	800238a <HAL_RCC_OscConfig+0x10e>
 800236a:	f003 0103 	and.w	r1, r3, #3
 800236e:	2902      	cmp	r1, #2
 8002370:	f000 811c 	beq.w	80025ac <HAL_RCC_OscConfig+0x330>
 8002374:	07d8      	lsls	r0, r3, #31
 8002376:	f100 820f 	bmi.w	8002798 <HAL_RCC_OscConfig+0x51c>
 800237a:	4968      	ldr	r1, [pc, #416]	; (800251c <HAL_RCC_OscConfig+0x2a0>)
 800237c:	f8d1 3094 	ldr.w	r3, [r1, #148]	; 0x94
 8002380:	f023 0310 	bic.w	r3, r3, #16
 8002384:	4313      	orrs	r3, r2
 8002386:	f8c1 3094 	str.w	r3, [r1, #148]	; 0x94
 800238a:	4e64      	ldr	r6, [pc, #400]	; (800251c <HAL_RCC_OscConfig+0x2a0>)
 800238c:	f8d6 3094 	ldr.w	r3, [r6, #148]	; 0x94
 8002390:	f043 0301 	orr.w	r3, r3, #1
 8002394:	f8c6 3094 	str.w	r3, [r6, #148]	; 0x94
 8002398:	f7ff fcfc 	bl	8001d94 <HAL_GetTick>
 800239c:	4607      	mov	r7, r0
 800239e:	e005      	b.n	80023ac <HAL_RCC_OscConfig+0x130>
 80023a0:	f7ff fcf8 	bl	8001d94 <HAL_GetTick>
 80023a4:	1bc0      	subs	r0, r0, r7
 80023a6:	2811      	cmp	r0, #17
 80023a8:	f200 8147 	bhi.w	800263a <HAL_RCC_OscConfig+0x3be>
 80023ac:	f8d6 3094 	ldr.w	r3, [r6, #148]	; 0x94
 80023b0:	079a      	lsls	r2, r3, #30
 80023b2:	d5f5      	bpl.n	80023a0 <HAL_RCC_OscConfig+0x124>
 80023b4:	6823      	ldr	r3, [r4, #0]
 80023b6:	075f      	lsls	r7, r3, #29
 80023b8:	d546      	bpl.n	8002448 <HAL_RCC_OscConfig+0x1cc>
 80023ba:	4b58      	ldr	r3, [pc, #352]	; (800251c <HAL_RCC_OscConfig+0x2a0>)
 80023bc:	6d9a      	ldr	r2, [r3, #88]	; 0x58
 80023be:	00d6      	lsls	r6, r2, #3
 80023c0:	f100 8154 	bmi.w	800266c <HAL_RCC_OscConfig+0x3f0>
 80023c4:	6d9a      	ldr	r2, [r3, #88]	; 0x58
 80023c6:	f042 5280 	orr.w	r2, r2, #268435456	; 0x10000000
 80023ca:	659a      	str	r2, [r3, #88]	; 0x58
 80023cc:	6d9b      	ldr	r3, [r3, #88]	; 0x58
 80023ce:	f003 5380 	and.w	r3, r3, #268435456	; 0x10000000
 80023d2:	9301      	str	r3, [sp, #4]
 80023d4:	9b01      	ldr	r3, [sp, #4]
 80023d6:	2601      	movs	r6, #1
 80023d8:	4f51      	ldr	r7, [pc, #324]	; (8002520 <HAL_RCC_OscConfig+0x2a4>)
 80023da:	683b      	ldr	r3, [r7, #0]
 80023dc:	05d8      	lsls	r0, r3, #23
 80023de:	f140 81b6 	bpl.w	800274e <HAL_RCC_OscConfig+0x4d2>
 80023e2:	68a3      	ldr	r3, [r4, #8]
 80023e4:	07d9      	lsls	r1, r3, #31
 80023e6:	f140 816e 	bpl.w	80026c6 <HAL_RCC_OscConfig+0x44a>
 80023ea:	494c      	ldr	r1, [pc, #304]	; (800251c <HAL_RCC_OscConfig+0x2a0>)
 80023ec:	f8d1 2090 	ldr.w	r2, [r1, #144]	; 0x90
 80023f0:	f003 0080 	and.w	r0, r3, #128	; 0x80
 80023f4:	f022 0280 	bic.w	r2, r2, #128	; 0x80
 80023f8:	4302      	orrs	r2, r0
 80023fa:	f8c1 2090 	str.w	r2, [r1, #144]	; 0x90
 80023fe:	f013 0f04 	tst.w	r3, #4
 8002402:	f8d1 3090 	ldr.w	r3, [r1, #144]	; 0x90
 8002406:	bf1e      	ittt	ne
 8002408:	f043 0304 	orrne.w	r3, r3, #4
 800240c:	f8c1 3090 	strne.w	r3, [r1, #144]	; 0x90
 8002410:	f8d1 3090 	ldrne.w	r3, [r1, #144]	; 0x90
 8002414:	f043 0301 	orr.w	r3, r3, #1
 8002418:	f8c1 3090 	str.w	r3, [r1, #144]	; 0x90
 800241c:	f7ff fcba 	bl	8001d94 <HAL_GetTick>
 8002420:	f8df 80f8 	ldr.w	r8, [pc, #248]	; 800251c <HAL_RCC_OscConfig+0x2a0>
 8002424:	4607      	mov	r7, r0
 8002426:	f241 3988 	movw	r9, #5000	; 0x1388
 800242a:	e005      	b.n	8002438 <HAL_RCC_OscConfig+0x1bc>
 800242c:	f7ff fcb2 	bl	8001d94 <HAL_GetTick>
 8002430:	1bc0      	subs	r0, r0, r7
 8002432:	4548      	cmp	r0, r9
 8002434:	f200 8101 	bhi.w	800263a <HAL_RCC_OscConfig+0x3be>
 8002438:	f8d8 3090 	ldr.w	r3, [r8, #144]	; 0x90
 800243c:	079b      	lsls	r3, r3, #30
 800243e:	d5f5      	bpl.n	800242c <HAL_RCC_OscConfig+0x1b0>
 8002440:	2e00      	cmp	r6, #0
 8002442:	f040 817e 	bne.w	8002742 <HAL_RCC_OscConfig+0x4c6>
 8002446:	6823      	ldr	r3, [r4, #0]
 8002448:	0699      	lsls	r1, r3, #26
 800244a:	d518      	bpl.n	800247e <HAL_RCC_OscConfig+0x202>
 800244c:	6aa3      	ldr	r3, [r4, #40]	; 0x28
 800244e:	4e33      	ldr	r6, [pc, #204]	; (800251c <HAL_RCC_OscConfig+0x2a0>)
 8002450:	2b00      	cmp	r3, #0
 8002452:	f000 8162 	beq.w	800271a <HAL_RCC_OscConfig+0x49e>
 8002456:	f8d6 3098 	ldr.w	r3, [r6, #152]	; 0x98
 800245a:	f043 0301 	orr.w	r3, r3, #1
 800245e:	f8c6 3098 	str.w	r3, [r6, #152]	; 0x98
 8002462:	f7ff fc97 	bl	8001d94 <HAL_GetTick>
 8002466:	4607      	mov	r7, r0
 8002468:	e005      	b.n	8002476 <HAL_RCC_OscConfig+0x1fa>
 800246a:	f7ff fc93 	bl	8001d94 <HAL_GetTick>
 800246e:	1bc0      	subs	r0, r0, r7
 8002470:	2802      	cmp	r0, #2
 8002472:	f200 80e2 	bhi.w	800263a <HAL_RCC_OscConfig+0x3be>
 8002476:	f8d6 3098 	ldr.w	r3, [r6, #152]	; 0x98
 800247a:	079a      	lsls	r2, r3, #30
 800247c:	d5f5      	bpl.n	800246a <HAL_RCC_OscConfig+0x1ee>
 800247e:	6ae3      	ldr	r3, [r4, #44]	; 0x2c
 8002480:	b1fb      	cbz	r3, 80024c2 <HAL_RCC_OscConfig+0x246>
 8002482:	2b02      	cmp	r3, #2
 8002484:	f000 819e 	beq.w	80027c4 <HAL_RCC_OscConfig+0x548>
 8002488:	2d0c      	cmp	r5, #12
 800248a:	f000 808f 	beq.w	80025ac <HAL_RCC_OscConfig+0x330>
 800248e:	4c23      	ldr	r4, [pc, #140]	; (800251c <HAL_RCC_OscConfig+0x2a0>)
 8002490:	6823      	ldr	r3, [r4, #0]
 8002492:	f023 7380 	bic.w	r3, r3, #16777216	; 0x1000000
 8002496:	6023      	str	r3, [r4, #0]
 8002498:	68e3      	ldr	r3, [r4, #12]
 800249a:	f023 0303 	bic.w	r3, r3, #3
 800249e:	60e3      	str	r3, [r4, #12]
 80024a0:	68e3      	ldr	r3, [r4, #12]
 80024a2:	f023 7388 	bic.w	r3, r3, #17825792	; 0x1100000
 80024a6:	60e3      	str	r3, [r4, #12]
 80024a8:	f7ff fc74 	bl	8001d94 <HAL_GetTick>
 80024ac:	4605      	mov	r5, r0
 80024ae:	e005      	b.n	80024bc <HAL_RCC_OscConfig+0x240>
 80024b0:	f7ff fc70 	bl	8001d94 <HAL_GetTick>
 80024b4:	1b40      	subs	r0, r0, r5
 80024b6:	2802      	cmp	r0, #2
 80024b8:	f200 80bf 	bhi.w	800263a <HAL_RCC_OscConfig+0x3be>
 80024bc:	6823      	ldr	r3, [r4, #0]
 80024be:	019b      	lsls	r3, r3, #6
 80024c0:	d4f6      	bmi.n	80024b0 <HAL_RCC_OscConfig+0x234>
 80024c2:	2000      	movs	r0, #0
 80024c4:	b003      	add	sp, #12
 80024c6:	e8bd 83f0 	ldmia.w	sp!, {r4, r5, r6, r7, r8, r9, pc}
 80024ca:	2d08      	cmp	r5, #8
 80024cc:	d074      	beq.n	80025b8 <HAL_RCC_OscConfig+0x33c>
 80024ce:	2d0c      	cmp	r5, #12
 80024d0:	d070      	beq.n	80025b4 <HAL_RCC_OscConfig+0x338>
 80024d2:	6863      	ldr	r3, [r4, #4]
 80024d4:	f5b3 3f80 	cmp.w	r3, #65536	; 0x10000
 80024d8:	f000 80b3 	beq.w	8002642 <HAL_RCC_OscConfig+0x3c6>
 80024dc:	f5b3 2fa0 	cmp.w	r3, #327680	; 0x50000
 80024e0:	f000 814d 	beq.w	800277e <HAL_RCC_OscConfig+0x502>
 80024e4:	4f0d      	ldr	r7, [pc, #52]	; (800251c <HAL_RCC_OscConfig+0x2a0>)
 80024e6:	683a      	ldr	r2, [r7, #0]
 80024e8:	f422 3280 	bic.w	r2, r2, #65536	; 0x10000
 80024ec:	603a      	str	r2, [r7, #0]
 80024ee:	683a      	ldr	r2, [r7, #0]
 80024f0:	f422 2280 	bic.w	r2, r2, #262144	; 0x40000
 80024f4:	603a      	str	r2, [r7, #0]
 80024f6:	2b00      	cmp	r3, #0
 80024f8:	f040 80a8 	bne.w	800264c <HAL_RCC_OscConfig+0x3d0>
 80024fc:	f7ff fc4a 	bl	8001d94 <HAL_GetTick>
 8002500:	4680      	mov	r8, r0
 8002502:	e006      	b.n	8002512 <HAL_RCC_OscConfig+0x296>
 8002504:	f7ff fc46 	bl	8001d94 <HAL_GetTick>
 8002508:	eba0 0008 	sub.w	r0, r0, r8
 800250c:	2864      	cmp	r0, #100	; 0x64
 800250e:	f200 8094 	bhi.w	800263a <HAL_RCC_OscConfig+0x3be>
 8002512:	683b      	ldr	r3, [r7, #0]
 8002514:	039b      	lsls	r3, r3, #14
 8002516:	d4f5      	bmi.n	8002504 <HAL_RCC_OscConfig+0x288>
 8002518:	6823      	ldr	r3, [r4, #0]
 800251a:	e6f2      	b.n	8002302 <HAL_RCC_OscConfig+0x86>
 800251c:	40021000 	.word	0x40021000
 8002520:	40007000 	.word	0x40007000
 8002524:	2e01      	cmp	r6, #1
 8002526:	f47f aec0 	bne.w	80022aa <HAL_RCC_OscConfig+0x2e>
 800252a:	4bb0      	ldr	r3, [pc, #704]	; (80027ec <HAL_RCC_OscConfig+0x570>)
 800252c:	681b      	ldr	r3, [r3, #0]
 800252e:	0798      	lsls	r0, r3, #30
 8002530:	d439      	bmi.n	80025a6 <HAL_RCC_OscConfig+0x32a>
 8002532:	4bae      	ldr	r3, [pc, #696]	; (80027ec <HAL_RCC_OscConfig+0x570>)
 8002534:	6a60      	ldr	r0, [r4, #36]	; 0x24
 8002536:	681a      	ldr	r2, [r3, #0]
 8002538:	0711      	lsls	r1, r2, #28
 800253a:	bf56      	itet	pl
 800253c:	f8d3 3094 	ldrpl.w	r3, [r3, #148]	; 0x94
 8002540:	681b      	ldrmi	r3, [r3, #0]
 8002542:	091b      	lsrpl	r3, r3, #4
 8002544:	f003 03f0 	and.w	r3, r3, #240	; 0xf0
 8002548:	4298      	cmp	r0, r3
 800254a:	f200 80a3 	bhi.w	8002694 <HAL_RCC_OscConfig+0x418>
 800254e:	4ba7      	ldr	r3, [pc, #668]	; (80027ec <HAL_RCC_OscConfig+0x570>)
 8002550:	681a      	ldr	r2, [r3, #0]
 8002552:	f042 0208 	orr.w	r2, r2, #8
 8002556:	601a      	str	r2, [r3, #0]
 8002558:	681a      	ldr	r2, [r3, #0]
 800255a:	f022 02f0 	bic.w	r2, r2, #240	; 0xf0
 800255e:	4302      	orrs	r2, r0
 8002560:	601a      	str	r2, [r3, #0]
 8002562:	685a      	ldr	r2, [r3, #4]
 8002564:	6a21      	ldr	r1, [r4, #32]
 8002566:	f422 427f 	bic.w	r2, r2, #65280	; 0xff00
 800256a:	ea42 2201 	orr.w	r2, r2, r1, lsl #8
 800256e:	605a      	str	r2, [r3, #4]
 8002570:	2d00      	cmp	r5, #0
 8002572:	f000 80fe 	beq.w	8002772 <HAL_RCC_OscConfig+0x4f6>
 8002576:	f7ff fe27 	bl	80021c8 <HAL_RCC_GetSysClockFreq>
 800257a:	4a9c      	ldr	r2, [pc, #624]	; (80027ec <HAL_RCC_OscConfig+0x570>)
 800257c:	499c      	ldr	r1, [pc, #624]	; (80027f0 <HAL_RCC_OscConfig+0x574>)
 800257e:	6892      	ldr	r2, [r2, #8]
 8002580:	f3c2 1203 	ubfx	r2, r2, #4, #4
 8002584:	4603      	mov	r3, r0
 8002586:	5c8a      	ldrb	r2, [r1, r2]
 8002588:	489a      	ldr	r0, [pc, #616]	; (80027f4 <HAL_RCC_OscConfig+0x578>)
 800258a:	499b      	ldr	r1, [pc, #620]	; (80027f8 <HAL_RCC_OscConfig+0x57c>)
 800258c:	6800      	ldr	r0, [r0, #0]
 800258e:	f002 021f 	and.w	r2, r2, #31
 8002592:	40d3      	lsrs	r3, r2
 8002594:	600b      	str	r3, [r1, #0]
 8002596:	f7ff fbbb 	bl	8001d10 <HAL_InitTick>
 800259a:	b940      	cbnz	r0, 80025ae <HAL_RCC_OscConfig+0x332>
 800259c:	6823      	ldr	r3, [r4, #0]
 800259e:	07d8      	lsls	r0, r3, #31
 80025a0:	f57f aeaf 	bpl.w	8002302 <HAL_RCC_OscConfig+0x86>
 80025a4:	e791      	b.n	80024ca <HAL_RCC_OscConfig+0x24e>
 80025a6:	69e3      	ldr	r3, [r4, #28]
 80025a8:	2b00      	cmp	r3, #0
 80025aa:	d1c2      	bne.n	8002532 <HAL_RCC_OscConfig+0x2b6>
 80025ac:	2001      	movs	r0, #1
 80025ae:	b003      	add	sp, #12
 80025b0:	e8bd 83f0 	ldmia.w	sp!, {r4, r5, r6, r7, r8, r9, pc}
 80025b4:	2e03      	cmp	r6, #3
 80025b6:	d18c      	bne.n	80024d2 <HAL_RCC_OscConfig+0x256>
 80025b8:	4a8c      	ldr	r2, [pc, #560]	; (80027ec <HAL_RCC_OscConfig+0x570>)
 80025ba:	6812      	ldr	r2, [r2, #0]
 80025bc:	0391      	lsls	r1, r2, #14
 80025be:	f57f aea0 	bpl.w	8002302 <HAL_RCC_OscConfig+0x86>
 80025c2:	6862      	ldr	r2, [r4, #4]
 80025c4:	2a00      	cmp	r2, #0
 80025c6:	f47f ae9c 	bne.w	8002302 <HAL_RCC_OscConfig+0x86>
 80025ca:	e7ef      	b.n	80025ac <HAL_RCC_OscConfig+0x330>
 80025cc:	2e02      	cmp	r6, #2
 80025ce:	f47f aea0 	bne.w	8002312 <HAL_RCC_OscConfig+0x96>
 80025d2:	4a86      	ldr	r2, [pc, #536]	; (80027ec <HAL_RCC_OscConfig+0x570>)
 80025d4:	6812      	ldr	r2, [r2, #0]
 80025d6:	0551      	lsls	r1, r2, #21
 80025d8:	d502      	bpl.n	80025e0 <HAL_RCC_OscConfig+0x364>
 80025da:	68e2      	ldr	r2, [r4, #12]
 80025dc:	2a00      	cmp	r2, #0
 80025de:	d0e5      	beq.n	80025ac <HAL_RCC_OscConfig+0x330>
 80025e0:	4982      	ldr	r1, [pc, #520]	; (80027ec <HAL_RCC_OscConfig+0x570>)
 80025e2:	6920      	ldr	r0, [r4, #16]
 80025e4:	684a      	ldr	r2, [r1, #4]
 80025e6:	f022 42fe 	bic.w	r2, r2, #2130706432	; 0x7f000000
 80025ea:	ea42 6200 	orr.w	r2, r2, r0, lsl #24
 80025ee:	604a      	str	r2, [r1, #4]
 80025f0:	e6ad      	b.n	800234e <HAL_RCC_OscConfig+0xd2>
 80025f2:	f8d6 3094 	ldr.w	r3, [r6, #148]	; 0x94
 80025f6:	f023 0301 	bic.w	r3, r3, #1
 80025fa:	f8c6 3094 	str.w	r3, [r6, #148]	; 0x94
 80025fe:	f7ff fbc9 	bl	8001d94 <HAL_GetTick>
 8002602:	4607      	mov	r7, r0
 8002604:	e004      	b.n	8002610 <HAL_RCC_OscConfig+0x394>
 8002606:	f7ff fbc5 	bl	8001d94 <HAL_GetTick>
 800260a:	1bc0      	subs	r0, r0, r7
 800260c:	2811      	cmp	r0, #17
 800260e:	d814      	bhi.n	800263a <HAL_RCC_OscConfig+0x3be>
 8002610:	f8d6 3094 	ldr.w	r3, [r6, #148]	; 0x94
 8002614:	079b      	lsls	r3, r3, #30
 8002616:	d4f6      	bmi.n	8002606 <HAL_RCC_OscConfig+0x38a>
 8002618:	e6cc      	b.n	80023b4 <HAL_RCC_OscConfig+0x138>
 800261a:	683b      	ldr	r3, [r7, #0]
 800261c:	f023 0301 	bic.w	r3, r3, #1
 8002620:	603b      	str	r3, [r7, #0]
 8002622:	f7ff fbb7 	bl	8001d94 <HAL_GetTick>
 8002626:	4680      	mov	r8, r0
 8002628:	683b      	ldr	r3, [r7, #0]
 800262a:	079b      	lsls	r3, r3, #30
 800262c:	d5b6      	bpl.n	800259c <HAL_RCC_OscConfig+0x320>
 800262e:	f7ff fbb1 	bl	8001d94 <HAL_GetTick>
 8002632:	eba0 0008 	sub.w	r0, r0, r8
 8002636:	2802      	cmp	r0, #2
 8002638:	d9f6      	bls.n	8002628 <HAL_RCC_OscConfig+0x3ac>
 800263a:	2003      	movs	r0, #3
 800263c:	b003      	add	sp, #12
 800263e:	e8bd 83f0 	ldmia.w	sp!, {r4, r5, r6, r7, r8, r9, pc}
 8002642:	4a6a      	ldr	r2, [pc, #424]	; (80027ec <HAL_RCC_OscConfig+0x570>)
 8002644:	6813      	ldr	r3, [r2, #0]
 8002646:	f443 3380 	orr.w	r3, r3, #65536	; 0x10000
 800264a:	6013      	str	r3, [r2, #0]
 800264c:	f7ff fba2 	bl	8001d94 <HAL_GetTick>
 8002650:	f8df 8198 	ldr.w	r8, [pc, #408]	; 80027ec <HAL_RCC_OscConfig+0x570>
 8002654:	4607      	mov	r7, r0
 8002656:	e004      	b.n	8002662 <HAL_RCC_OscConfig+0x3e6>
 8002658:	f7ff fb9c 	bl	8001d94 <HAL_GetTick>
 800265c:	1bc0      	subs	r0, r0, r7
 800265e:	2864      	cmp	r0, #100	; 0x64
 8002660:	d8eb      	bhi.n	800263a <HAL_RCC_OscConfig+0x3be>
 8002662:	f8d8 3000 	ldr.w	r3, [r8]
 8002666:	039a      	lsls	r2, r3, #14
 8002668:	d5f6      	bpl.n	8002658 <HAL_RCC_OscConfig+0x3dc>
 800266a:	e755      	b.n	8002518 <HAL_RCC_OscConfig+0x29c>
 800266c:	2600      	movs	r6, #0
 800266e:	e6b3      	b.n	80023d8 <HAL_RCC_OscConfig+0x15c>
 8002670:	6833      	ldr	r3, [r6, #0]
 8002672:	f423 7380 	bic.w	r3, r3, #256	; 0x100
 8002676:	6033      	str	r3, [r6, #0]
 8002678:	f7ff fb8c 	bl	8001d94 <HAL_GetTick>
 800267c:	4607      	mov	r7, r0
 800267e:	e004      	b.n	800268a <HAL_RCC_OscConfig+0x40e>
 8002680:	f7ff fb88 	bl	8001d94 <HAL_GetTick>
 8002684:	1bc0      	subs	r0, r0, r7
 8002686:	2802      	cmp	r0, #2
 8002688:	d8d7      	bhi.n	800263a <HAL_RCC_OscConfig+0x3be>
 800268a:	6833      	ldr	r3, [r6, #0]
 800268c:	055b      	lsls	r3, r3, #21
 800268e:	d4f7      	bmi.n	8002680 <HAL_RCC_OscConfig+0x404>
 8002690:	6823      	ldr	r3, [r4, #0]
 8002692:	e65c      	b.n	800234e <HAL_RCC_OscConfig+0xd2>
 8002694:	f7ff fd52 	bl	800213c <RCC_SetFlashLatencyFromMSIRange>
 8002698:	2800      	cmp	r0, #0
 800269a:	d187      	bne.n	80025ac <HAL_RCC_OscConfig+0x330>
 800269c:	4b53      	ldr	r3, [pc, #332]	; (80027ec <HAL_RCC_OscConfig+0x570>)
 800269e:	681a      	ldr	r2, [r3, #0]
 80026a0:	f042 0208 	orr.w	r2, r2, #8
 80026a4:	601a      	str	r2, [r3, #0]
 80026a6:	681a      	ldr	r2, [r3, #0]
 80026a8:	6a61      	ldr	r1, [r4, #36]	; 0x24
 80026aa:	f022 02f0 	bic.w	r2, r2, #240	; 0xf0
 80026ae:	430a      	orrs	r2, r1
 80026b0:	601a      	str	r2, [r3, #0]
 80026b2:	685a      	ldr	r2, [r3, #4]
 80026b4:	6a21      	ldr	r1, [r4, #32]
 80026b6:	f422 427f 	bic.w	r2, r2, #65280	; 0xff00
 80026ba:	ea42 2201 	orr.w	r2, r2, r1, lsl #8
 80026be:	605a      	str	r2, [r3, #4]
 80026c0:	e759      	b.n	8002576 <HAL_RCC_OscConfig+0x2fa>
 80026c2:	2001      	movs	r0, #1
 80026c4:	4770      	bx	lr
 80026c6:	4f49      	ldr	r7, [pc, #292]	; (80027ec <HAL_RCC_OscConfig+0x570>)
 80026c8:	f8d7 2090 	ldr.w	r2, [r7, #144]	; 0x90
 80026cc:	f022 0201 	bic.w	r2, r2, #1
 80026d0:	f8c7 2090 	str.w	r2, [r7, #144]	; 0x90
 80026d4:	f8d7 2090 	ldr.w	r2, [r7, #144]	; 0x90
 80026d8:	f022 0204 	bic.w	r2, r2, #4
 80026dc:	f8c7 2090 	str.w	r2, [r7, #144]	; 0x90
 80026e0:	2b00      	cmp	r3, #0
 80026e2:	f47f ae9b 	bne.w	800241c <HAL_RCC_OscConfig+0x1a0>
 80026e6:	f7ff fb55 	bl	8001d94 <HAL_GetTick>
 80026ea:	f241 3988 	movw	r9, #5000	; 0x1388
 80026ee:	4680      	mov	r8, r0
 80026f0:	e005      	b.n	80026fe <HAL_RCC_OscConfig+0x482>
 80026f2:	f7ff fb4f 	bl	8001d94 <HAL_GetTick>
 80026f6:	eba0 0008 	sub.w	r0, r0, r8
 80026fa:	4548      	cmp	r0, r9
 80026fc:	d89d      	bhi.n	800263a <HAL_RCC_OscConfig+0x3be>
 80026fe:	f8d7 3090 	ldr.w	r3, [r7, #144]	; 0x90
 8002702:	0798      	lsls	r0, r3, #30
 8002704:	d4f5      	bmi.n	80026f2 <HAL_RCC_OscConfig+0x476>
 8002706:	f8d7 3090 	ldr.w	r3, [r7, #144]	; 0x90
 800270a:	f023 0380 	bic.w	r3, r3, #128	; 0x80
 800270e:	f8c7 3090 	str.w	r3, [r7, #144]	; 0x90
 8002712:	2e00      	cmp	r6, #0
 8002714:	f43f ae97 	beq.w	8002446 <HAL_RCC_OscConfig+0x1ca>
 8002718:	e013      	b.n	8002742 <HAL_RCC_OscConfig+0x4c6>
 800271a:	f8d6 3098 	ldr.w	r3, [r6, #152]	; 0x98
 800271e:	f023 0301 	bic.w	r3, r3, #1
 8002722:	f8c6 3098 	str.w	r3, [r6, #152]	; 0x98
 8002726:	f7ff fb35 	bl	8001d94 <HAL_GetTick>
 800272a:	4607      	mov	r7, r0
 800272c:	e004      	b.n	8002738 <HAL_RCC_OscConfig+0x4bc>
 800272e:	f7ff fb31 	bl	8001d94 <HAL_GetTick>
 8002732:	1bc0      	subs	r0, r0, r7
 8002734:	2802      	cmp	r0, #2
 8002736:	d880      	bhi.n	800263a <HAL_RCC_OscConfig+0x3be>
 8002738:	f8d6 3098 	ldr.w	r3, [r6, #152]	; 0x98
 800273c:	079b      	lsls	r3, r3, #30
 800273e:	d4f6      	bmi.n	800272e <HAL_RCC_OscConfig+0x4b2>
 8002740:	e69d      	b.n	800247e <HAL_RCC_OscConfig+0x202>
 8002742:	4a2a      	ldr	r2, [pc, #168]	; (80027ec <HAL_RCC_OscConfig+0x570>)
 8002744:	6d93      	ldr	r3, [r2, #88]	; 0x58
 8002746:	f023 5380 	bic.w	r3, r3, #268435456	; 0x10000000
 800274a:	6593      	str	r3, [r2, #88]	; 0x58
 800274c:	e67b      	b.n	8002446 <HAL_RCC_OscConfig+0x1ca>
 800274e:	683b      	ldr	r3, [r7, #0]
 8002750:	f443 7380 	orr.w	r3, r3, #256	; 0x100
 8002754:	603b      	str	r3, [r7, #0]
 8002756:	f7ff fb1d 	bl	8001d94 <HAL_GetTick>
 800275a:	4680      	mov	r8, r0
 800275c:	683b      	ldr	r3, [r7, #0]
 800275e:	05da      	lsls	r2, r3, #23
 8002760:	f53f ae3f 	bmi.w	80023e2 <HAL_RCC_OscConfig+0x166>
 8002764:	f7ff fb16 	bl	8001d94 <HAL_GetTick>
 8002768:	eba0 0008 	sub.w	r0, r0, r8
 800276c:	2802      	cmp	r0, #2
 800276e:	d9f5      	bls.n	800275c <HAL_RCC_OscConfig+0x4e0>
 8002770:	e763      	b.n	800263a <HAL_RCC_OscConfig+0x3be>
 8002772:	f7ff fce3 	bl	800213c <RCC_SetFlashLatencyFromMSIRange>
 8002776:	2800      	cmp	r0, #0
 8002778:	f43f aefd 	beq.w	8002576 <HAL_RCC_OscConfig+0x2fa>
 800277c:	e716      	b.n	80025ac <HAL_RCC_OscConfig+0x330>
 800277e:	f103 4380 	add.w	r3, r3, #1073741824	; 0x40000000
 8002782:	f5a3 333c 	sub.w	r3, r3, #192512	; 0x2f000
 8002786:	681a      	ldr	r2, [r3, #0]
 8002788:	f442 2280 	orr.w	r2, r2, #262144	; 0x40000
 800278c:	601a      	str	r2, [r3, #0]
 800278e:	681a      	ldr	r2, [r3, #0]
 8002790:	f442 3280 	orr.w	r2, r2, #65536	; 0x10000
 8002794:	601a      	str	r2, [r3, #0]
 8002796:	e759      	b.n	800264c <HAL_RCC_OscConfig+0x3d0>
 8002798:	f8d6 3094 	ldr.w	r3, [r6, #148]	; 0x94
 800279c:	f023 0301 	bic.w	r3, r3, #1
 80027a0:	f8c6 3094 	str.w	r3, [r6, #148]	; 0x94
 80027a4:	f7ff faf6 	bl	8001d94 <HAL_GetTick>
 80027a8:	4607      	mov	r7, r0
 80027aa:	e005      	b.n	80027b8 <HAL_RCC_OscConfig+0x53c>
 80027ac:	f7ff faf2 	bl	8001d94 <HAL_GetTick>
 80027b0:	1bc0      	subs	r0, r0, r7
 80027b2:	2811      	cmp	r0, #17
 80027b4:	f63f af41 	bhi.w	800263a <HAL_RCC_OscConfig+0x3be>
 80027b8:	f8d6 3094 	ldr.w	r3, [r6, #148]	; 0x94
 80027bc:	0799      	lsls	r1, r3, #30
 80027be:	d4f5      	bmi.n	80027ac <HAL_RCC_OscConfig+0x530>
 80027c0:	69a2      	ldr	r2, [r4, #24]
 80027c2:	e5da      	b.n	800237a <HAL_RCC_OscConfig+0xfe>
 80027c4:	4e09      	ldr	r6, [pc, #36]	; (80027ec <HAL_RCC_OscConfig+0x570>)
 80027c6:	6b22      	ldr	r2, [r4, #48]	; 0x30
 80027c8:	68f3      	ldr	r3, [r6, #12]
 80027ca:	f003 0103 	and.w	r1, r3, #3
 80027ce:	4291      	cmp	r1, r2
 80027d0:	d04b      	beq.n	800286a <HAL_RCC_OscConfig+0x5ee>
 80027d2:	2d0c      	cmp	r5, #12
 80027d4:	f43f aeea 	beq.w	80025ac <HAL_RCC_OscConfig+0x330>
 80027d8:	4d04      	ldr	r5, [pc, #16]	; (80027ec <HAL_RCC_OscConfig+0x570>)
 80027da:	682b      	ldr	r3, [r5, #0]
 80027dc:	f023 7380 	bic.w	r3, r3, #16777216	; 0x1000000
 80027e0:	602b      	str	r3, [r5, #0]
 80027e2:	f7ff fad7 	bl	8001d94 <HAL_GetTick>
 80027e6:	4606      	mov	r6, r0
 80027e8:	e00e      	b.n	8002808 <HAL_RCC_OscConfig+0x58c>
 80027ea:	bf00      	nop
 80027ec:	40021000 	.word	0x40021000
 80027f0:	08004b2c 	.word	0x08004b2c
 80027f4:	20000008 	.word	0x20000008
 80027f8:	20000000 	.word	0x20000000
 80027fc:	f7ff faca 	bl	8001d94 <HAL_GetTick>
 8002800:	1b80      	subs	r0, r0, r6
 8002802:	2802      	cmp	r0, #2
 8002804:	f63f af19 	bhi.w	800263a <HAL_RCC_OscConfig+0x3be>
 8002808:	682b      	ldr	r3, [r5, #0]
 800280a:	019f      	lsls	r7, r3, #6
 800280c:	d4f6      	bmi.n	80027fc <HAL_RCC_OscConfig+0x580>
 800280e:	68ea      	ldr	r2, [r5, #12]
 8002810:	4b31      	ldr	r3, [pc, #196]	; (80028d8 <HAL_RCC_OscConfig+0x65c>)
 8002812:	6b27      	ldr	r7, [r4, #48]	; 0x30
 8002814:	6ba6      	ldr	r6, [r4, #56]	; 0x38
 8002816:	6b60      	ldr	r0, [r4, #52]	; 0x34
 8002818:	4013      	ands	r3, r2
 800281a:	e9d4 120f 	ldrd	r1, r2, [r4, #60]	; 0x3c
 800281e:	433b      	orrs	r3, r7
 8002820:	ea43 2306 	orr.w	r3, r3, r6, lsl #8
 8002824:	3801      	subs	r0, #1
 8002826:	0849      	lsrs	r1, r1, #1
 8002828:	ea43 1300 	orr.w	r3, r3, r0, lsl #4
 800282c:	3901      	subs	r1, #1
 800282e:	0852      	lsrs	r2, r2, #1
 8002830:	ea43 5341 	orr.w	r3, r3, r1, lsl #21
 8002834:	3a01      	subs	r2, #1
 8002836:	ea43 6342 	orr.w	r3, r3, r2, lsl #25
 800283a:	60eb      	str	r3, [r5, #12]
 800283c:	682b      	ldr	r3, [r5, #0]
 800283e:	4e27      	ldr	r6, [pc, #156]	; (80028dc <HAL_RCC_OscConfig+0x660>)
 8002840:	f043 7380 	orr.w	r3, r3, #16777216	; 0x1000000
 8002844:	602b      	str	r3, [r5, #0]
 8002846:	68eb      	ldr	r3, [r5, #12]
 8002848:	f043 7380 	orr.w	r3, r3, #16777216	; 0x1000000
 800284c:	60eb      	str	r3, [r5, #12]
 800284e:	f7ff faa1 	bl	8001d94 <HAL_GetTick>
 8002852:	4604      	mov	r4, r0
 8002854:	e005      	b.n	8002862 <HAL_RCC_OscConfig+0x5e6>
 8002856:	f7ff fa9d 	bl	8001d94 <HAL_GetTick>
 800285a:	1b00      	subs	r0, r0, r4
 800285c:	2802      	cmp	r0, #2
 800285e:	f63f aeec 	bhi.w	800263a <HAL_RCC_OscConfig+0x3be>
 8002862:	6833      	ldr	r3, [r6, #0]
 8002864:	0198      	lsls	r0, r3, #6
 8002866:	d5f6      	bpl.n	8002856 <HAL_RCC_OscConfig+0x5da>
 8002868:	e62b      	b.n	80024c2 <HAL_RCC_OscConfig+0x246>
 800286a:	6b61      	ldr	r1, [r4, #52]	; 0x34
 800286c:	f003 0270 	and.w	r2, r3, #112	; 0x70
 8002870:	3901      	subs	r1, #1
 8002872:	ebb2 1f01 	cmp.w	r2, r1, lsl #4
 8002876:	d1ac      	bne.n	80027d2 <HAL_RCC_OscConfig+0x556>
 8002878:	6ba1      	ldr	r1, [r4, #56]	; 0x38
 800287a:	f403 42fe 	and.w	r2, r3, #32512	; 0x7f00
 800287e:	ebb2 2f01 	cmp.w	r2, r1, lsl #8
 8002882:	d1a6      	bne.n	80027d2 <HAL_RCC_OscConfig+0x556>
 8002884:	6be2      	ldr	r2, [r4, #60]	; 0x3c
 8002886:	0852      	lsrs	r2, r2, #1
 8002888:	3a01      	subs	r2, #1
 800288a:	f403 01c0 	and.w	r1, r3, #6291456	; 0x600000
 800288e:	ebb1 5f42 	cmp.w	r1, r2, lsl #21
 8002892:	d19e      	bne.n	80027d2 <HAL_RCC_OscConfig+0x556>
 8002894:	6c22      	ldr	r2, [r4, #64]	; 0x40
 8002896:	0852      	lsrs	r2, r2, #1
 8002898:	f003 63c0 	and.w	r3, r3, #100663296	; 0x6000000
 800289c:	3a01      	subs	r2, #1
 800289e:	ebb3 6f42 	cmp.w	r3, r2, lsl #25
 80028a2:	d196      	bne.n	80027d2 <HAL_RCC_OscConfig+0x556>
 80028a4:	6833      	ldr	r3, [r6, #0]
 80028a6:	0199      	lsls	r1, r3, #6
 80028a8:	f53f ae0b 	bmi.w	80024c2 <HAL_RCC_OscConfig+0x246>
 80028ac:	6833      	ldr	r3, [r6, #0]
 80028ae:	f043 7380 	orr.w	r3, r3, #16777216	; 0x1000000
 80028b2:	6033      	str	r3, [r6, #0]
 80028b4:	68f3      	ldr	r3, [r6, #12]
 80028b6:	f043 7380 	orr.w	r3, r3, #16777216	; 0x1000000
 80028ba:	60f3      	str	r3, [r6, #12]
 80028bc:	f7ff fa6a 	bl	8001d94 <HAL_GetTick>
 80028c0:	4604      	mov	r4, r0
 80028c2:	e005      	b.n	80028d0 <HAL_RCC_OscConfig+0x654>
 80028c4:	f7ff fa66 	bl	8001d94 <HAL_GetTick>
 80028c8:	1b00      	subs	r0, r0, r4
 80028ca:	2802      	cmp	r0, #2
 80028cc:	f63f aeb5 	bhi.w	800263a <HAL_RCC_OscConfig+0x3be>
 80028d0:	6833      	ldr	r3, [r6, #0]
 80028d2:	019a      	lsls	r2, r3, #6
 80028d4:	d5f6      	bpl.n	80028c4 <HAL_RCC_OscConfig+0x648>
 80028d6:	e5f4      	b.n	80024c2 <HAL_RCC_OscConfig+0x246>
 80028d8:	f99f808c 	.word	0xf99f808c
 80028dc:	40021000 	.word	0x40021000

080028e0 <HAL_RCC_ClockConfig>:
 80028e0:	2800      	cmp	r0, #0
 80028e2:	f000 8081 	beq.w	80029e8 <HAL_RCC_ClockConfig+0x108>
 80028e6:	4a45      	ldr	r2, [pc, #276]	; (80029fc <HAL_RCC_ClockConfig+0x11c>)
 80028e8:	6813      	ldr	r3, [r2, #0]
 80028ea:	f003 0307 	and.w	r3, r3, #7
 80028ee:	428b      	cmp	r3, r1
 80028f0:	e92d 41f0 	stmdb	sp!, {r4, r5, r6, r7, r8, lr}
 80028f4:	460d      	mov	r5, r1
 80028f6:	4604      	mov	r4, r0
 80028f8:	d20c      	bcs.n	8002914 <HAL_RCC_ClockConfig+0x34>
 80028fa:	6813      	ldr	r3, [r2, #0]
 80028fc:	f023 0307 	bic.w	r3, r3, #7
 8002900:	430b      	orrs	r3, r1
 8002902:	6013      	str	r3, [r2, #0]
 8002904:	6813      	ldr	r3, [r2, #0]
 8002906:	f003 0307 	and.w	r3, r3, #7
 800290a:	428b      	cmp	r3, r1
 800290c:	d002      	beq.n	8002914 <HAL_RCC_ClockConfig+0x34>
 800290e:	2001      	movs	r0, #1
 8002910:	e8bd 81f0 	ldmia.w	sp!, {r4, r5, r6, r7, r8, pc}
 8002914:	6823      	ldr	r3, [r4, #0]
 8002916:	07da      	lsls	r2, r3, #31
 8002918:	d43f      	bmi.n	800299a <HAL_RCC_ClockConfig+0xba>
 800291a:	0799      	lsls	r1, r3, #30
 800291c:	d506      	bpl.n	800292c <HAL_RCC_ClockConfig+0x4c>
 800291e:	4938      	ldr	r1, [pc, #224]	; (8002a00 <HAL_RCC_ClockConfig+0x120>)
 8002920:	68a0      	ldr	r0, [r4, #8]
 8002922:	688a      	ldr	r2, [r1, #8]
 8002924:	f022 02f0 	bic.w	r2, r2, #240	; 0xf0
 8002928:	4302      	orrs	r2, r0
 800292a:	608a      	str	r2, [r1, #8]
 800292c:	4933      	ldr	r1, [pc, #204]	; (80029fc <HAL_RCC_ClockConfig+0x11c>)
 800292e:	680a      	ldr	r2, [r1, #0]
 8002930:	f002 0207 	and.w	r2, r2, #7
 8002934:	42aa      	cmp	r2, r5
 8002936:	d909      	bls.n	800294c <HAL_RCC_ClockConfig+0x6c>
 8002938:	680a      	ldr	r2, [r1, #0]
 800293a:	f022 0207 	bic.w	r2, r2, #7
 800293e:	432a      	orrs	r2, r5
 8002940:	600a      	str	r2, [r1, #0]
 8002942:	680a      	ldr	r2, [r1, #0]
 8002944:	f002 0207 	and.w	r2, r2, #7
 8002948:	42aa      	cmp	r2, r5
 800294a:	d1e0      	bne.n	800290e <HAL_RCC_ClockConfig+0x2e>
 800294c:	075a      	lsls	r2, r3, #29
 800294e:	d506      	bpl.n	800295e <HAL_RCC_ClockConfig+0x7e>
 8002950:	492b      	ldr	r1, [pc, #172]	; (8002a00 <HAL_RCC_ClockConfig+0x120>)
 8002952:	68e0      	ldr	r0, [r4, #12]
 8002954:	688a      	ldr	r2, [r1, #8]
 8002956:	f422 62e0 	bic.w	r2, r2, #1792	; 0x700
 800295a:	4302      	orrs	r2, r0
 800295c:	608a      	str	r2, [r1, #8]
 800295e:	071b      	lsls	r3, r3, #28
 8002960:	d507      	bpl.n	8002972 <HAL_RCC_ClockConfig+0x92>
 8002962:	4a27      	ldr	r2, [pc, #156]	; (8002a00 <HAL_RCC_ClockConfig+0x120>)
 8002964:	6921      	ldr	r1, [r4, #16]
 8002966:	6893      	ldr	r3, [r2, #8]
 8002968:	f423 5360 	bic.w	r3, r3, #14336	; 0x3800
 800296c:	ea43 03c1 	orr.w	r3, r3, r1, lsl #3
 8002970:	6093      	str	r3, [r2, #8]
 8002972:	f7ff fc29 	bl	80021c8 <HAL_RCC_GetSysClockFreq>
 8002976:	4a22      	ldr	r2, [pc, #136]	; (8002a00 <HAL_RCC_ClockConfig+0x120>)
 8002978:	4c22      	ldr	r4, [pc, #136]	; (8002a04 <HAL_RCC_ClockConfig+0x124>)
 800297a:	6892      	ldr	r2, [r2, #8]
 800297c:	4922      	ldr	r1, [pc, #136]	; (8002a08 <HAL_RCC_ClockConfig+0x128>)
 800297e:	f3c2 1203 	ubfx	r2, r2, #4, #4
 8002982:	4603      	mov	r3, r0
 8002984:	5ca2      	ldrb	r2, [r4, r2]
 8002986:	4821      	ldr	r0, [pc, #132]	; (8002a0c <HAL_RCC_ClockConfig+0x12c>)
 8002988:	f002 021f 	and.w	r2, r2, #31
 800298c:	40d3      	lsrs	r3, r2
 800298e:	e8bd 41f0 	ldmia.w	sp!, {r4, r5, r6, r7, r8, lr}
 8002992:	6800      	ldr	r0, [r0, #0]
 8002994:	600b      	str	r3, [r1, #0]
 8002996:	f7ff b9bb 	b.w	8001d10 <HAL_InitTick>
 800299a:	6862      	ldr	r2, [r4, #4]
 800299c:	4b18      	ldr	r3, [pc, #96]	; (8002a00 <HAL_RCC_ClockConfig+0x120>)
 800299e:	2a03      	cmp	r2, #3
 80029a0:	681b      	ldr	r3, [r3, #0]
 80029a2:	d023      	beq.n	80029ec <HAL_RCC_ClockConfig+0x10c>
 80029a4:	2a02      	cmp	r2, #2
 80029a6:	d01c      	beq.n	80029e2 <HAL_RCC_ClockConfig+0x102>
 80029a8:	bb2a      	cbnz	r2, 80029f6 <HAL_RCC_ClockConfig+0x116>
 80029aa:	079e      	lsls	r6, r3, #30
 80029ac:	d5af      	bpl.n	800290e <HAL_RCC_ClockConfig+0x2e>
 80029ae:	4e14      	ldr	r6, [pc, #80]	; (8002a00 <HAL_RCC_ClockConfig+0x120>)
 80029b0:	68b3      	ldr	r3, [r6, #8]
 80029b2:	f023 0303 	bic.w	r3, r3, #3
 80029b6:	4313      	orrs	r3, r2
 80029b8:	60b3      	str	r3, [r6, #8]
 80029ba:	f7ff f9eb 	bl	8001d94 <HAL_GetTick>
 80029be:	f241 3888 	movw	r8, #5000	; 0x1388
 80029c2:	4607      	mov	r7, r0
 80029c4:	e004      	b.n	80029d0 <HAL_RCC_ClockConfig+0xf0>
 80029c6:	f7ff f9e5 	bl	8001d94 <HAL_GetTick>
 80029ca:	1bc0      	subs	r0, r0, r7
 80029cc:	4540      	cmp	r0, r8
 80029ce:	d810      	bhi.n	80029f2 <HAL_RCC_ClockConfig+0x112>
 80029d0:	68b3      	ldr	r3, [r6, #8]
 80029d2:	6862      	ldr	r2, [r4, #4]
 80029d4:	f003 030c 	and.w	r3, r3, #12
 80029d8:	ebb3 0f82 	cmp.w	r3, r2, lsl #2
 80029dc:	d1f3      	bne.n	80029c6 <HAL_RCC_ClockConfig+0xe6>
 80029de:	6823      	ldr	r3, [r4, #0]
 80029e0:	e79b      	b.n	800291a <HAL_RCC_ClockConfig+0x3a>
 80029e2:	039f      	lsls	r7, r3, #14
 80029e4:	d4e3      	bmi.n	80029ae <HAL_RCC_ClockConfig+0xce>
 80029e6:	e792      	b.n	800290e <HAL_RCC_ClockConfig+0x2e>
 80029e8:	2001      	movs	r0, #1
 80029ea:	4770      	bx	lr
 80029ec:	019b      	lsls	r3, r3, #6
 80029ee:	d4de      	bmi.n	80029ae <HAL_RCC_ClockConfig+0xce>
 80029f0:	e78d      	b.n	800290e <HAL_RCC_ClockConfig+0x2e>
 80029f2:	2003      	movs	r0, #3
 80029f4:	e78c      	b.n	8002910 <HAL_RCC_ClockConfig+0x30>
 80029f6:	0558      	lsls	r0, r3, #21
 80029f8:	d589      	bpl.n	800290e <HAL_RCC_ClockConfig+0x2e>
 80029fa:	e7d8      	b.n	80029ae <HAL_RCC_ClockConfig+0xce>
 80029fc:	40022000 	.word	0x40022000
 8002a00:	40021000 	.word	0x40021000
 8002a04:	08004b2c 	.word	0x08004b2c
 8002a08:	20000000 	.word	0x20000000
 8002a0c:	20000008 	.word	0x20000008

08002a10 <HAL_RCCEx_PeriphCLKConfig>:
 8002a10:	e92d 41f0 	stmdb	sp!, {r4, r5, r6, r7, r8, lr}
 8002a14:	6803      	ldr	r3, [r0, #0]
 8002a16:	4604      	mov	r4, r0
 8002a18:	f413 3000 	ands.w	r0, r3, #131072	; 0x20000
 8002a1c:	b082      	sub	sp, #8
 8002a1e:	d056      	beq.n	8002ace <HAL_RCCEx_PeriphCLKConfig+0xbe>
 8002a20:	4b79      	ldr	r3, [pc, #484]	; (8002c08 <HAL_RCCEx_PeriphCLKConfig+0x1f8>)
 8002a22:	6d9a      	ldr	r2, [r3, #88]	; 0x58
 8002a24:	00d5      	lsls	r5, r2, #3
 8002a26:	f140 80d4 	bpl.w	8002bd2 <HAL_RCCEx_PeriphCLKConfig+0x1c2>
 8002a2a:	2700      	movs	r7, #0
 8002a2c:	4d77      	ldr	r5, [pc, #476]	; (8002c0c <HAL_RCCEx_PeriphCLKConfig+0x1fc>)
 8002a2e:	682b      	ldr	r3, [r5, #0]
 8002a30:	f443 7380 	orr.w	r3, r3, #256	; 0x100
 8002a34:	602b      	str	r3, [r5, #0]
 8002a36:	f7ff f9ad 	bl	8001d94 <HAL_GetTick>
 8002a3a:	4606      	mov	r6, r0
 8002a3c:	e005      	b.n	8002a4a <HAL_RCCEx_PeriphCLKConfig+0x3a>
 8002a3e:	f7ff f9a9 	bl	8001d94 <HAL_GetTick>
 8002a42:	1b83      	subs	r3, r0, r6
 8002a44:	2b02      	cmp	r3, #2
 8002a46:	f200 80cf 	bhi.w	8002be8 <HAL_RCCEx_PeriphCLKConfig+0x1d8>
 8002a4a:	682b      	ldr	r3, [r5, #0]
 8002a4c:	05d8      	lsls	r0, r3, #23
 8002a4e:	d5f6      	bpl.n	8002a3e <HAL_RCCEx_PeriphCLKConfig+0x2e>
 8002a50:	4d6d      	ldr	r5, [pc, #436]	; (8002c08 <HAL_RCCEx_PeriphCLKConfig+0x1f8>)
 8002a52:	f8d5 3090 	ldr.w	r3, [r5, #144]	; 0x90
 8002a56:	f413 7340 	ands.w	r3, r3, #768	; 0x300
 8002a5a:	d027      	beq.n	8002aac <HAL_RCCEx_PeriphCLKConfig+0x9c>
 8002a5c:	6b22      	ldr	r2, [r4, #48]	; 0x30
 8002a5e:	429a      	cmp	r2, r3
 8002a60:	d025      	beq.n	8002aae <HAL_RCCEx_PeriphCLKConfig+0x9e>
 8002a62:	f8d5 1090 	ldr.w	r1, [r5, #144]	; 0x90
 8002a66:	f8d5 3090 	ldr.w	r3, [r5, #144]	; 0x90
 8002a6a:	f443 3380 	orr.w	r3, r3, #65536	; 0x10000
 8002a6e:	f8c5 3090 	str.w	r3, [r5, #144]	; 0x90
 8002a72:	f8d5 3090 	ldr.w	r3, [r5, #144]	; 0x90
 8002a76:	f421 7040 	bic.w	r0, r1, #768	; 0x300
 8002a7a:	f423 3380 	bic.w	r3, r3, #65536	; 0x10000
 8002a7e:	07c9      	lsls	r1, r1, #31
 8002a80:	f8c5 3090 	str.w	r3, [r5, #144]	; 0x90
 8002a84:	f8c5 0090 	str.w	r0, [r5, #144]	; 0x90
 8002a88:	f140 80bc 	bpl.w	8002c04 <HAL_RCCEx_PeriphCLKConfig+0x1f4>
 8002a8c:	f7ff f982 	bl	8001d94 <HAL_GetTick>
 8002a90:	f241 3888 	movw	r8, #5000	; 0x1388
 8002a94:	4606      	mov	r6, r0
 8002a96:	e005      	b.n	8002aa4 <HAL_RCCEx_PeriphCLKConfig+0x94>
 8002a98:	f7ff f97c 	bl	8001d94 <HAL_GetTick>
 8002a9c:	1b80      	subs	r0, r0, r6
 8002a9e:	4540      	cmp	r0, r8
 8002aa0:	f200 80a2 	bhi.w	8002be8 <HAL_RCCEx_PeriphCLKConfig+0x1d8>
 8002aa4:	f8d5 3090 	ldr.w	r3, [r5, #144]	; 0x90
 8002aa8:	079b      	lsls	r3, r3, #30
 8002aaa:	d5f5      	bpl.n	8002a98 <HAL_RCCEx_PeriphCLKConfig+0x88>
 8002aac:	6b23      	ldr	r3, [r4, #48]	; 0x30
 8002aae:	4956      	ldr	r1, [pc, #344]	; (8002c08 <HAL_RCCEx_PeriphCLKConfig+0x1f8>)
 8002ab0:	f8d1 2090 	ldr.w	r2, [r1, #144]	; 0x90
 8002ab4:	f422 7240 	bic.w	r2, r2, #768	; 0x300
 8002ab8:	4313      	orrs	r3, r2
 8002aba:	f8c1 3090 	str.w	r3, [r1, #144]	; 0x90
 8002abe:	2000      	movs	r0, #0
 8002ac0:	b127      	cbz	r7, 8002acc <HAL_RCCEx_PeriphCLKConfig+0xbc>
 8002ac2:	4a51      	ldr	r2, [pc, #324]	; (8002c08 <HAL_RCCEx_PeriphCLKConfig+0x1f8>)
 8002ac4:	6d93      	ldr	r3, [r2, #88]	; 0x58
 8002ac6:	f023 5380 	bic.w	r3, r3, #268435456	; 0x10000000
 8002aca:	6593      	str	r3, [r2, #88]	; 0x58
 8002acc:	6823      	ldr	r3, [r4, #0]
 8002ace:	07df      	lsls	r7, r3, #31
 8002ad0:	d508      	bpl.n	8002ae4 <HAL_RCCEx_PeriphCLKConfig+0xd4>
 8002ad2:	494d      	ldr	r1, [pc, #308]	; (8002c08 <HAL_RCCEx_PeriphCLKConfig+0x1f8>)
 8002ad4:	6865      	ldr	r5, [r4, #4]
 8002ad6:	f8d1 2088 	ldr.w	r2, [r1, #136]	; 0x88
 8002ada:	f022 0203 	bic.w	r2, r2, #3
 8002ade:	432a      	orrs	r2, r5
 8002ae0:	f8c1 2088 	str.w	r2, [r1, #136]	; 0x88
 8002ae4:	079e      	lsls	r6, r3, #30
 8002ae6:	d508      	bpl.n	8002afa <HAL_RCCEx_PeriphCLKConfig+0xea>
 8002ae8:	4947      	ldr	r1, [pc, #284]	; (8002c08 <HAL_RCCEx_PeriphCLKConfig+0x1f8>)
 8002aea:	68a5      	ldr	r5, [r4, #8]
 8002aec:	f8d1 2088 	ldr.w	r2, [r1, #136]	; 0x88
 8002af0:	f022 020c 	bic.w	r2, r2, #12
 8002af4:	432a      	orrs	r2, r5
 8002af6:	f8c1 2088 	str.w	r2, [r1, #136]	; 0x88
 8002afa:	075d      	lsls	r5, r3, #29
 8002afc:	d508      	bpl.n	8002b10 <HAL_RCCEx_PeriphCLKConfig+0x100>
 8002afe:	4942      	ldr	r1, [pc, #264]	; (8002c08 <HAL_RCCEx_PeriphCLKConfig+0x1f8>)
 8002b00:	68e5      	ldr	r5, [r4, #12]
 8002b02:	f8d1 2088 	ldr.w	r2, [r1, #136]	; 0x88
 8002b06:	f022 0230 	bic.w	r2, r2, #48	; 0x30
 8002b0a:	432a      	orrs	r2, r5
 8002b0c:	f8c1 2088 	str.w	r2, [r1, #136]	; 0x88
 8002b10:	0699      	lsls	r1, r3, #26
 8002b12:	d508      	bpl.n	8002b26 <HAL_RCCEx_PeriphCLKConfig+0x116>
 8002b14:	493c      	ldr	r1, [pc, #240]	; (8002c08 <HAL_RCCEx_PeriphCLKConfig+0x1f8>)
 8002b16:	6925      	ldr	r5, [r4, #16]
 8002b18:	f8d1 2088 	ldr.w	r2, [r1, #136]	; 0x88
 8002b1c:	f422 6240 	bic.w	r2, r2, #3072	; 0xc00
 8002b20:	432a      	orrs	r2, r5
 8002b22:	f8c1 2088 	str.w	r2, [r1, #136]	; 0x88
 8002b26:	059a      	lsls	r2, r3, #22
 8002b28:	d508      	bpl.n	8002b3c <HAL_RCCEx_PeriphCLKConfig+0x12c>
 8002b2a:	4937      	ldr	r1, [pc, #220]	; (8002c08 <HAL_RCCEx_PeriphCLKConfig+0x1f8>)
 8002b2c:	6a25      	ldr	r5, [r4, #32]
 8002b2e:	f8d1 2088 	ldr.w	r2, [r1, #136]	; 0x88
 8002b32:	f422 2240 	bic.w	r2, r2, #786432	; 0xc0000
 8002b36:	432a      	orrs	r2, r5
 8002b38:	f8c1 2088 	str.w	r2, [r1, #136]	; 0x88
 8002b3c:	055f      	lsls	r7, r3, #21
 8002b3e:	d508      	bpl.n	8002b52 <HAL_RCCEx_PeriphCLKConfig+0x142>
 8002b40:	4931      	ldr	r1, [pc, #196]	; (8002c08 <HAL_RCCEx_PeriphCLKConfig+0x1f8>)
 8002b42:	6a65      	ldr	r5, [r4, #36]	; 0x24
 8002b44:	f8d1 2088 	ldr.w	r2, [r1, #136]	; 0x88
 8002b48:	f422 1240 	bic.w	r2, r2, #3145728	; 0x300000
 8002b4c:	432a      	orrs	r2, r5
 8002b4e:	f8c1 2088 	str.w	r2, [r1, #136]	; 0x88
 8002b52:	065e      	lsls	r6, r3, #25
 8002b54:	d508      	bpl.n	8002b68 <HAL_RCCEx_PeriphCLKConfig+0x158>
 8002b56:	492c      	ldr	r1, [pc, #176]	; (8002c08 <HAL_RCCEx_PeriphCLKConfig+0x1f8>)
 8002b58:	6965      	ldr	r5, [r4, #20]
 8002b5a:	f8d1 2088 	ldr.w	r2, [r1, #136]	; 0x88
 8002b5e:	f422 5240 	bic.w	r2, r2, #12288	; 0x3000
 8002b62:	432a      	orrs	r2, r5
 8002b64:	f8c1 2088 	str.w	r2, [r1, #136]	; 0x88
 8002b68:	061d      	lsls	r5, r3, #24
 8002b6a:	d508      	bpl.n	8002b7e <HAL_RCCEx_PeriphCLKConfig+0x16e>
 8002b6c:	4926      	ldr	r1, [pc, #152]	; (8002c08 <HAL_RCCEx_PeriphCLKConfig+0x1f8>)
 8002b6e:	69a5      	ldr	r5, [r4, #24]
 8002b70:	f8d1 2088 	ldr.w	r2, [r1, #136]	; 0x88
 8002b74:	f422 4240 	bic.w	r2, r2, #49152	; 0xc000
 8002b78:	432a      	orrs	r2, r5
 8002b7a:	f8c1 2088 	str.w	r2, [r1, #136]	; 0x88
 8002b7e:	05d9      	lsls	r1, r3, #23
 8002b80:	d508      	bpl.n	8002b94 <HAL_RCCEx_PeriphCLKConfig+0x184>
 8002b82:	4921      	ldr	r1, [pc, #132]	; (8002c08 <HAL_RCCEx_PeriphCLKConfig+0x1f8>)
 8002b84:	69e5      	ldr	r5, [r4, #28]
 8002b86:	f8d1 2088 	ldr.w	r2, [r1, #136]	; 0x88
 8002b8a:	f422 3240 	bic.w	r2, r2, #196608	; 0x30000
 8002b8e:	432a      	orrs	r2, r5
 8002b90:	f8c1 2088 	str.w	r2, [r1, #136]	; 0x88
 8002b94:	049a      	lsls	r2, r3, #18
 8002b96:	d50b      	bpl.n	8002bb0 <HAL_RCCEx_PeriphCLKConfig+0x1a0>
 8002b98:	491b      	ldr	r1, [pc, #108]	; (8002c08 <HAL_RCCEx_PeriphCLKConfig+0x1f8>)
 8002b9a:	6aa5      	ldr	r5, [r4, #40]	; 0x28
 8002b9c:	f8d1 2088 	ldr.w	r2, [r1, #136]	; 0x88
 8002ba0:	f022 6240 	bic.w	r2, r2, #201326592	; 0xc000000
 8002ba4:	432a      	orrs	r2, r5
 8002ba6:	f1b5 6f00 	cmp.w	r5, #134217728	; 0x8000000
 8002baa:	f8c1 2088 	str.w	r2, [r1, #136]	; 0x88
 8002bae:	d01d      	beq.n	8002bec <HAL_RCCEx_PeriphCLKConfig+0x1dc>
 8002bb0:	035b      	lsls	r3, r3, #13
 8002bb2:	d50b      	bpl.n	8002bcc <HAL_RCCEx_PeriphCLKConfig+0x1bc>
 8002bb4:	4a14      	ldr	r2, [pc, #80]	; (8002c08 <HAL_RCCEx_PeriphCLKConfig+0x1f8>)
 8002bb6:	6ae1      	ldr	r1, [r4, #44]	; 0x2c
 8002bb8:	f8d2 3088 	ldr.w	r3, [r2, #136]	; 0x88
 8002bbc:	f023 6340 	bic.w	r3, r3, #201326592	; 0xc000000
 8002bc0:	430b      	orrs	r3, r1
 8002bc2:	f1b1 6f00 	cmp.w	r1, #134217728	; 0x8000000
 8002bc6:	f8c2 3088 	str.w	r3, [r2, #136]	; 0x88
 8002bca:	d014      	beq.n	8002bf6 <HAL_RCCEx_PeriphCLKConfig+0x1e6>
 8002bcc:	b002      	add	sp, #8
 8002bce:	e8bd 81f0 	ldmia.w	sp!, {r4, r5, r6, r7, r8, pc}
 8002bd2:	6d9a      	ldr	r2, [r3, #88]	; 0x58
 8002bd4:	f042 5280 	orr.w	r2, r2, #268435456	; 0x10000000
 8002bd8:	659a      	str	r2, [r3, #88]	; 0x58
 8002bda:	6d9b      	ldr	r3, [r3, #88]	; 0x58
 8002bdc:	f003 5380 	and.w	r3, r3, #268435456	; 0x10000000
 8002be0:	9301      	str	r3, [sp, #4]
 8002be2:	9b01      	ldr	r3, [sp, #4]
 8002be4:	2701      	movs	r7, #1
 8002be6:	e721      	b.n	8002a2c <HAL_RCCEx_PeriphCLKConfig+0x1c>
 8002be8:	2003      	movs	r0, #3
 8002bea:	e769      	b.n	8002ac0 <HAL_RCCEx_PeriphCLKConfig+0xb0>
 8002bec:	68ca      	ldr	r2, [r1, #12]
 8002bee:	f442 1280 	orr.w	r2, r2, #1048576	; 0x100000
 8002bf2:	60ca      	str	r2, [r1, #12]
 8002bf4:	e7dc      	b.n	8002bb0 <HAL_RCCEx_PeriphCLKConfig+0x1a0>
 8002bf6:	68d3      	ldr	r3, [r2, #12]
 8002bf8:	f443 1380 	orr.w	r3, r3, #1048576	; 0x100000
 8002bfc:	60d3      	str	r3, [r2, #12]
 8002bfe:	b002      	add	sp, #8
 8002c00:	e8bd 81f0 	ldmia.w	sp!, {r4, r5, r6, r7, r8, pc}
 8002c04:	4613      	mov	r3, r2
 8002c06:	e752      	b.n	8002aae <HAL_RCCEx_PeriphCLKConfig+0x9e>
 8002c08:	40021000 	.word	0x40021000
 8002c0c:	40007000 	.word	0x40007000

08002c10 <HAL_RNG_Init>:
 8002c10:	b380      	cbz	r0, 8002c74 <HAL_RNG_Init+0x64>
 8002c12:	b538      	push	{r3, r4, r5, lr}
 8002c14:	7943      	ldrb	r3, [r0, #5]
 8002c16:	4604      	mov	r4, r0
 8002c18:	f003 02ff 	and.w	r2, r3, #255	; 0xff
 8002c1c:	b333      	cbz	r3, 8002c6c <HAL_RNG_Init+0x5c>
 8002c1e:	6823      	ldr	r3, [r4, #0]
 8002c20:	2202      	movs	r2, #2
 8002c22:	7162      	strb	r2, [r4, #5]
 8002c24:	681a      	ldr	r2, [r3, #0]
 8002c26:	f042 0204 	orr.w	r2, r2, #4
 8002c2a:	601a      	str	r2, [r3, #0]
 8002c2c:	685b      	ldr	r3, [r3, #4]
 8002c2e:	0658      	lsls	r0, r3, #25
 8002c30:	d503      	bpl.n	8002c3a <HAL_RNG_Init+0x2a>
 8002c32:	2304      	movs	r3, #4
 8002c34:	7163      	strb	r3, [r4, #5]
 8002c36:	2001      	movs	r0, #1
 8002c38:	bd38      	pop	{r3, r4, r5, pc}
 8002c3a:	f7ff f8ab 	bl	8001d94 <HAL_GetTick>
 8002c3e:	6823      	ldr	r3, [r4, #0]
 8002c40:	685b      	ldr	r3, [r3, #4]
 8002c42:	0759      	lsls	r1, r3, #29
 8002c44:	4605      	mov	r5, r0
 8002c46:	d50b      	bpl.n	8002c60 <HAL_RNG_Init+0x50>
 8002c48:	f7ff f8a4 	bl	8001d94 <HAL_GetTick>
 8002c4c:	1b43      	subs	r3, r0, r5
 8002c4e:	2b02      	cmp	r3, #2
 8002c50:	6823      	ldr	r3, [r4, #0]
 8002c52:	d902      	bls.n	8002c5a <HAL_RNG_Init+0x4a>
 8002c54:	685a      	ldr	r2, [r3, #4]
 8002c56:	0752      	lsls	r2, r2, #29
 8002c58:	d40e      	bmi.n	8002c78 <HAL_RNG_Init+0x68>
 8002c5a:	685b      	ldr	r3, [r3, #4]
 8002c5c:	075b      	lsls	r3, r3, #29
 8002c5e:	d4f3      	bmi.n	8002c48 <HAL_RNG_Init+0x38>
 8002c60:	2201      	movs	r2, #1
 8002c62:	2300      	movs	r3, #0
 8002c64:	7162      	strb	r2, [r4, #5]
 8002c66:	4618      	mov	r0, r3
 8002c68:	60a3      	str	r3, [r4, #8]
 8002c6a:	bd38      	pop	{r3, r4, r5, pc}
 8002c6c:	7102      	strb	r2, [r0, #4]
 8002c6e:	f7fe ff25 	bl	8001abc <HAL_RNG_MspInit>
 8002c72:	e7d4      	b.n	8002c1e <HAL_RNG_Init+0xe>
 8002c74:	2001      	movs	r0, #1
 8002c76:	4770      	bx	lr
 8002c78:	2204      	movs	r2, #4
 8002c7a:	2302      	movs	r3, #2
 8002c7c:	7162      	strb	r2, [r4, #5]
 8002c7e:	2001      	movs	r0, #1
 8002c80:	60a3      	str	r3, [r4, #8]
 8002c82:	bd38      	pop	{r3, r4, r5, pc}

08002c84 <HAL_RNG_DeInit>:
 8002c84:	b188      	cbz	r0, 8002caa <HAL_RNG_DeInit+0x26>
 8002c86:	6803      	ldr	r3, [r0, #0]
 8002c88:	681a      	ldr	r2, [r3, #0]
 8002c8a:	f022 020c 	bic.w	r2, r2, #12
 8002c8e:	b510      	push	{r4, lr}
 8002c90:	601a      	str	r2, [r3, #0]
 8002c92:	685a      	ldr	r2, [r3, #4]
 8002c94:	f022 0260 	bic.w	r2, r2, #96	; 0x60
 8002c98:	4604      	mov	r4, r0
 8002c9a:	605a      	str	r2, [r3, #4]
 8002c9c:	f7fe ff3a 	bl	8001b14 <HAL_RNG_MspDeInit>
 8002ca0:	2000      	movs	r0, #0
 8002ca2:	7160      	strb	r0, [r4, #5]
 8002ca4:	7120      	strb	r0, [r4, #4]
 8002ca6:	60a0      	str	r0, [r4, #8]
 8002ca8:	bd10      	pop	{r4, pc}
 8002caa:	2001      	movs	r0, #1
 8002cac:	4770      	bx	lr
 8002cae:	bf00      	nop

08002cb0 <HAL_RNG_GenerateRandomNumber>:
 8002cb0:	e92d 41f0 	stmdb	sp!, {r4, r5, r6, r7, r8, lr}
 8002cb4:	7903      	ldrb	r3, [r0, #4]
 8002cb6:	2b01      	cmp	r3, #1
 8002cb8:	d028      	beq.n	8002d0c <HAL_RNG_GenerateRandomNumber+0x5c>
 8002cba:	7943      	ldrb	r3, [r0, #5]
 8002cbc:	2201      	movs	r2, #1
 8002cbe:	4293      	cmp	r3, r2
 8002cc0:	4604      	mov	r4, r0
 8002cc2:	fa5f f883 	uxtb.w	r8, r3
 8002cc6:	7102      	strb	r2, [r0, #4]
 8002cc8:	d007      	beq.n	8002cda <HAL_RNG_GenerateRandomNumber+0x2a>
 8002cca:	2304      	movs	r3, #4
 8002ccc:	4690      	mov	r8, r2
 8002cce:	6083      	str	r3, [r0, #8]
 8002cd0:	2300      	movs	r3, #0
 8002cd2:	7123      	strb	r3, [r4, #4]
 8002cd4:	4640      	mov	r0, r8
 8002cd6:	e8bd 81f0 	ldmia.w	sp!, {r4, r5, r6, r7, r8, pc}
 8002cda:	2302      	movs	r3, #2
 8002cdc:	7143      	strb	r3, [r0, #5]
 8002cde:	460e      	mov	r6, r1
 8002ce0:	f7ff f858 	bl	8001d94 <HAL_GetTick>
 8002ce4:	4607      	mov	r7, r0
 8002ce6:	e004      	b.n	8002cf2 <HAL_RNG_GenerateRandomNumber+0x42>
 8002ce8:	f7ff f854 	bl	8001d94 <HAL_GetTick>
 8002cec:	1bc0      	subs	r0, r0, r7
 8002cee:	2802      	cmp	r0, #2
 8002cf0:	d811      	bhi.n	8002d16 <HAL_RNG_GenerateRandomNumber+0x66>
 8002cf2:	6822      	ldr	r2, [r4, #0]
 8002cf4:	6855      	ldr	r5, [r2, #4]
 8002cf6:	f015 0501 	ands.w	r5, r5, #1
 8002cfa:	d0f5      	beq.n	8002ce8 <HAL_RNG_GenerateRandomNumber+0x38>
 8002cfc:	6893      	ldr	r3, [r2, #8]
 8002cfe:	60e3      	str	r3, [r4, #12]
 8002d00:	2201      	movs	r2, #1
 8002d02:	6033      	str	r3, [r6, #0]
 8002d04:	f04f 0800 	mov.w	r8, #0
 8002d08:	7162      	strb	r2, [r4, #5]
 8002d0a:	e7e1      	b.n	8002cd0 <HAL_RNG_GenerateRandomNumber+0x20>
 8002d0c:	f04f 0802 	mov.w	r8, #2
 8002d10:	4640      	mov	r0, r8
 8002d12:	e8bd 81f0 	ldmia.w	sp!, {r4, r5, r6, r7, r8, pc}
 8002d16:	2201      	movs	r2, #1
 8002d18:	2302      	movs	r3, #2
 8002d1a:	7162      	strb	r2, [r4, #5]
 8002d1c:	7125      	strb	r5, [r4, #4]
 8002d1e:	60a3      	str	r3, [r4, #8]
 8002d20:	e7d8      	b.n	8002cd4 <HAL_RNG_GenerateRandomNumber+0x24>
 8002d22:	bf00      	nop

08002d24 <SPI_WaitFifoStateUntilTimeout.constprop.1>:
 8002d24:	e92d 41f0 	stmdb	sp!, {r4, r5, r6, r7, r8, lr}
 8002d28:	b082      	sub	sp, #8
 8002d2a:	2300      	movs	r3, #0
 8002d2c:	4614      	mov	r4, r2
 8002d2e:	460d      	mov	r5, r1
 8002d30:	f88d 3003 	strb.w	r3, [sp, #3]
 8002d34:	4606      	mov	r6, r0
 8002d36:	f7ff f82d 	bl	8001d94 <HAL_GetTick>
 8002d3a:	442c      	add	r4, r5
 8002d3c:	1a27      	subs	r7, r4, r0
 8002d3e:	f7ff f829 	bl	8001d94 <HAL_GetTick>
 8002d42:	4b32      	ldr	r3, [pc, #200]	; (8002e0c <SPI_WaitFifoStateUntilTimeout.constprop.1+0xe8>)
 8002d44:	6834      	ldr	r4, [r6, #0]
 8002d46:	681b      	ldr	r3, [r3, #0]
 8002d48:	eb03 0383 	add.w	r3, r3, r3, lsl #2
 8002d4c:	ebc3 03c3 	rsb	r3, r3, r3, lsl #3
 8002d50:	0d1b      	lsrs	r3, r3, #20
 8002d52:	fb07 f303 	mul.w	r3, r7, r3
 8002d56:	4680      	mov	r8, r0
 8002d58:	9301      	str	r3, [sp, #4]
 8002d5a:	4622      	mov	r2, r4
 8002d5c:	1c69      	adds	r1, r5, #1
 8002d5e:	6893      	ldr	r3, [r2, #8]
 8002d60:	d110      	bne.n	8002d84 <SPI_WaitFifoStateUntilTimeout.constprop.1+0x60>
 8002d62:	f413 6fc0 	tst.w	r3, #1536	; 0x600
 8002d66:	d009      	beq.n	8002d7c <SPI_WaitFifoStateUntilTimeout.constprop.1+0x58>
 8002d68:	7b23      	ldrb	r3, [r4, #12]
 8002d6a:	b2db      	uxtb	r3, r3
 8002d6c:	f88d 3003 	strb.w	r3, [sp, #3]
 8002d70:	f89d 3003 	ldrb.w	r3, [sp, #3]
 8002d74:	6893      	ldr	r3, [r2, #8]
 8002d76:	f413 6fc0 	tst.w	r3, #1536	; 0x600
 8002d7a:	d1f5      	bne.n	8002d68 <SPI_WaitFifoStateUntilTimeout.constprop.1+0x44>
 8002d7c:	2000      	movs	r0, #0
 8002d7e:	b002      	add	sp, #8
 8002d80:	e8bd 81f0 	ldmia.w	sp!, {r4, r5, r6, r7, r8, pc}
 8002d84:	f413 6fc0 	tst.w	r3, #1536	; 0x600
 8002d88:	d0f8      	beq.n	8002d7c <SPI_WaitFifoStateUntilTimeout.constprop.1+0x58>
 8002d8a:	7b23      	ldrb	r3, [r4, #12]
 8002d8c:	b2db      	uxtb	r3, r3
 8002d8e:	f88d 3003 	strb.w	r3, [sp, #3]
 8002d92:	f89d 3003 	ldrb.w	r3, [sp, #3]
 8002d96:	f7fe fffd 	bl	8001d94 <HAL_GetTick>
 8002d9a:	eba0 0008 	sub.w	r0, r0, r8
 8002d9e:	42b8      	cmp	r0, r7
 8002da0:	d209      	bcs.n	8002db6 <SPI_WaitFifoStateUntilTimeout.constprop.1+0x92>
 8002da2:	9a01      	ldr	r2, [sp, #4]
 8002da4:	9b01      	ldr	r3, [sp, #4]
 8002da6:	2a00      	cmp	r2, #0
 8002da8:	f103 33ff 	add.w	r3, r3, #4294967295	; 0xffffffff
 8002dac:	6832      	ldr	r2, [r6, #0]
 8002dae:	9301      	str	r3, [sp, #4]
 8002db0:	bf08      	it	eq
 8002db2:	2700      	moveq	r7, #0
 8002db4:	e7d2      	b.n	8002d5c <SPI_WaitFifoStateUntilTimeout.constprop.1+0x38>
 8002db6:	e9d6 3100 	ldrd	r3, r1, [r6]
 8002dba:	685a      	ldr	r2, [r3, #4]
 8002dbc:	f5b1 7f82 	cmp.w	r1, #260	; 0x104
 8002dc0:	f022 02e0 	bic.w	r2, r2, #224	; 0xe0
 8002dc4:	605a      	str	r2, [r3, #4]
 8002dc6:	d014      	beq.n	8002df2 <SPI_WaitFifoStateUntilTimeout.constprop.1+0xce>
 8002dc8:	6ab2      	ldr	r2, [r6, #40]	; 0x28
 8002dca:	f5b2 5f00 	cmp.w	r2, #8192	; 0x2000
 8002dce:	d007      	beq.n	8002de0 <SPI_WaitFifoStateUntilTimeout.constprop.1+0xbc>
 8002dd0:	2201      	movs	r2, #1
 8002dd2:	2300      	movs	r3, #0
 8002dd4:	f886 205d 	strb.w	r2, [r6, #93]	; 0x5d
 8002dd8:	f886 305c 	strb.w	r3, [r6, #92]	; 0x5c
 8002ddc:	2003      	movs	r0, #3
 8002dde:	e7ce      	b.n	8002d7e <SPI_WaitFifoStateUntilTimeout.constprop.1+0x5a>
 8002de0:	681a      	ldr	r2, [r3, #0]
 8002de2:	f422 5200 	bic.w	r2, r2, #8192	; 0x2000
 8002de6:	601a      	str	r2, [r3, #0]
 8002de8:	681a      	ldr	r2, [r3, #0]
 8002dea:	f442 5200 	orr.w	r2, r2, #8192	; 0x2000
 8002dee:	601a      	str	r2, [r3, #0]
 8002df0:	e7ee      	b.n	8002dd0 <SPI_WaitFifoStateUntilTimeout.constprop.1+0xac>
 8002df2:	68b2      	ldr	r2, [r6, #8]
 8002df4:	f5b2 4f00 	cmp.w	r2, #32768	; 0x8000
 8002df8:	d002      	beq.n	8002e00 <SPI_WaitFifoStateUntilTimeout.constprop.1+0xdc>
 8002dfa:	f5b2 6f80 	cmp.w	r2, #1024	; 0x400
 8002dfe:	d1e3      	bne.n	8002dc8 <SPI_WaitFifoStateUntilTimeout.constprop.1+0xa4>
 8002e00:	681a      	ldr	r2, [r3, #0]
 8002e02:	f022 0240 	bic.w	r2, r2, #64	; 0x40
 8002e06:	601a      	str	r2, [r3, #0]
 8002e08:	e7de      	b.n	8002dc8 <SPI_WaitFifoStateUntilTimeout.constprop.1+0xa4>
 8002e0a:	bf00      	nop
 8002e0c:	20000000 	.word	0x20000000

08002e10 <SPI_EndRxTxTransaction>:
 8002e10:	e92d 47f0 	stmdb	sp!, {r4, r5, r6, r7, r8, r9, sl, lr}
 8002e14:	b084      	sub	sp, #16
 8002e16:	2300      	movs	r3, #0
 8002e18:	f88d 3007 	strb.w	r3, [sp, #7]
 8002e1c:	eb01 0802 	add.w	r8, r1, r2
 8002e20:	460d      	mov	r5, r1
 8002e22:	4616      	mov	r6, r2
 8002e24:	4604      	mov	r4, r0
 8002e26:	f7fe ffb5 	bl	8001d94 <HAL_GetTick>
 8002e2a:	4f46      	ldr	r7, [pc, #280]	; (8002f44 <SPI_EndRxTxTransaction+0x134>)
 8002e2c:	eba8 0900 	sub.w	r9, r8, r0
 8002e30:	f7fe ffb0 	bl	8001d94 <HAL_GetTick>
 8002e34:	683b      	ldr	r3, [r7, #0]
 8002e36:	eb03 0383 	add.w	r3, r3, r3, lsl #2
 8002e3a:	ebc3 03c3 	rsb	r3, r3, r3, lsl #3
 8002e3e:	0d1b      	lsrs	r3, r3, #20
 8002e40:	fb09 f303 	mul.w	r3, r9, r3
 8002e44:	4682      	mov	sl, r0
 8002e46:	9302      	str	r3, [sp, #8]
 8002e48:	1c68      	adds	r0, r5, #1
 8002e4a:	6823      	ldr	r3, [r4, #0]
 8002e4c:	d11f      	bne.n	8002e8e <SPI_EndRxTxTransaction+0x7e>
 8002e4e:	689a      	ldr	r2, [r3, #8]
 8002e50:	f412 5fc0 	tst.w	r2, #6144	; 0x1800
 8002e54:	d1fb      	bne.n	8002e4e <SPI_EndRxTxTransaction+0x3e>
 8002e56:	f7fe ff9d 	bl	8001d94 <HAL_GetTick>
 8002e5a:	eba8 0800 	sub.w	r8, r8, r0
 8002e5e:	f7fe ff99 	bl	8001d94 <HAL_GetTick>
 8002e62:	683b      	ldr	r3, [r7, #0]
 8002e64:	f3c3 33cb 	ubfx	r3, r3, #15, #12
 8002e68:	fb08 f303 	mul.w	r3, r8, r3
 8002e6c:	9303      	str	r3, [sp, #12]
 8002e6e:	4607      	mov	r7, r0
 8002e70:	1c69      	adds	r1, r5, #1
 8002e72:	6823      	ldr	r3, [r4, #0]
 8002e74:	d11f      	bne.n	8002eb6 <SPI_EndRxTxTransaction+0xa6>
 8002e76:	689a      	ldr	r2, [r3, #8]
 8002e78:	0612      	lsls	r2, r2, #24
 8002e7a:	d4fc      	bmi.n	8002e76 <SPI_EndRxTxTransaction+0x66>
 8002e7c:	4632      	mov	r2, r6
 8002e7e:	4629      	mov	r1, r5
 8002e80:	4620      	mov	r0, r4
 8002e82:	f7ff ff4f 	bl	8002d24 <SPI_WaitFifoStateUntilTimeout.constprop.1>
 8002e86:	bb40      	cbnz	r0, 8002eda <SPI_EndRxTxTransaction+0xca>
 8002e88:	b004      	add	sp, #16
 8002e8a:	e8bd 87f0 	ldmia.w	sp!, {r4, r5, r6, r7, r8, r9, sl, pc}
 8002e8e:	689b      	ldr	r3, [r3, #8]
 8002e90:	f413 5fc0 	tst.w	r3, #6144	; 0x1800
 8002e94:	d0df      	beq.n	8002e56 <SPI_EndRxTxTransaction+0x46>
 8002e96:	f7fe ff7d 	bl	8001d94 <HAL_GetTick>
 8002e9a:	eba0 000a 	sub.w	r0, r0, sl
 8002e9e:	4548      	cmp	r0, r9
 8002ea0:	d221      	bcs.n	8002ee6 <SPI_EndRxTxTransaction+0xd6>
 8002ea2:	9a02      	ldr	r2, [sp, #8]
 8002ea4:	9b02      	ldr	r3, [sp, #8]
 8002ea6:	2a00      	cmp	r2, #0
 8002ea8:	f103 33ff 	add.w	r3, r3, #4294967295	; 0xffffffff
 8002eac:	bf08      	it	eq
 8002eae:	f04f 0900 	moveq.w	r9, #0
 8002eb2:	9302      	str	r3, [sp, #8]
 8002eb4:	e7c8      	b.n	8002e48 <SPI_EndRxTxTransaction+0x38>
 8002eb6:	689b      	ldr	r3, [r3, #8]
 8002eb8:	061b      	lsls	r3, r3, #24
 8002eba:	d5df      	bpl.n	8002e7c <SPI_EndRxTxTransaction+0x6c>
 8002ebc:	f7fe ff6a 	bl	8001d94 <HAL_GetTick>
 8002ec0:	1bc3      	subs	r3, r0, r7
 8002ec2:	4543      	cmp	r3, r8
 8002ec4:	d20f      	bcs.n	8002ee6 <SPI_EndRxTxTransaction+0xd6>
 8002ec6:	9a03      	ldr	r2, [sp, #12]
 8002ec8:	9b03      	ldr	r3, [sp, #12]
 8002eca:	2a00      	cmp	r2, #0
 8002ecc:	f103 33ff 	add.w	r3, r3, #4294967295	; 0xffffffff
 8002ed0:	bf08      	it	eq
 8002ed2:	f04f 0800 	moveq.w	r8, #0
 8002ed6:	9303      	str	r3, [sp, #12]
 8002ed8:	e7ca      	b.n	8002e70 <SPI_EndRxTxTransaction+0x60>
 8002eda:	6e23      	ldr	r3, [r4, #96]	; 0x60
 8002edc:	f043 0320 	orr.w	r3, r3, #32
 8002ee0:	6623      	str	r3, [r4, #96]	; 0x60
 8002ee2:	2003      	movs	r0, #3
 8002ee4:	e7d0      	b.n	8002e88 <SPI_EndRxTxTransaction+0x78>
 8002ee6:	e9d4 3100 	ldrd	r3, r1, [r4]
 8002eea:	685a      	ldr	r2, [r3, #4]
 8002eec:	f5b1 7f82 	cmp.w	r1, #260	; 0x104
 8002ef0:	f022 02e0 	bic.w	r2, r2, #224	; 0xe0
 8002ef4:	605a      	str	r2, [r3, #4]
 8002ef6:	d019      	beq.n	8002f2c <SPI_EndRxTxTransaction+0x11c>
 8002ef8:	6aa2      	ldr	r2, [r4, #40]	; 0x28
 8002efa:	f5b2 5f00 	cmp.w	r2, #8192	; 0x2000
 8002efe:	d107      	bne.n	8002f10 <SPI_EndRxTxTransaction+0x100>
 8002f00:	681a      	ldr	r2, [r3, #0]
 8002f02:	f422 5200 	bic.w	r2, r2, #8192	; 0x2000
 8002f06:	601a      	str	r2, [r3, #0]
 8002f08:	681a      	ldr	r2, [r3, #0]
 8002f0a:	f442 5200 	orr.w	r2, r2, #8192	; 0x2000
 8002f0e:	601a      	str	r2, [r3, #0]
 8002f10:	2301      	movs	r3, #1
 8002f12:	f884 305d 	strb.w	r3, [r4, #93]	; 0x5d
 8002f16:	6e23      	ldr	r3, [r4, #96]	; 0x60
 8002f18:	2200      	movs	r2, #0
 8002f1a:	f043 0320 	orr.w	r3, r3, #32
 8002f1e:	2003      	movs	r0, #3
 8002f20:	6623      	str	r3, [r4, #96]	; 0x60
 8002f22:	f884 205c 	strb.w	r2, [r4, #92]	; 0x5c
 8002f26:	b004      	add	sp, #16
 8002f28:	e8bd 87f0 	ldmia.w	sp!, {r4, r5, r6, r7, r8, r9, sl, pc}
 8002f2c:	68a2      	ldr	r2, [r4, #8]
 8002f2e:	f5b2 4f00 	cmp.w	r2, #32768	; 0x8000
 8002f32:	d002      	beq.n	8002f3a <SPI_EndRxTxTransaction+0x12a>
 8002f34:	f5b2 6f80 	cmp.w	r2, #1024	; 0x400
 8002f38:	d1de      	bne.n	8002ef8 <SPI_EndRxTxTransaction+0xe8>
 8002f3a:	681a      	ldr	r2, [r3, #0]
 8002f3c:	f022 0240 	bic.w	r2, r2, #64	; 0x40
 8002f40:	601a      	str	r2, [r3, #0]
 8002f42:	e7d9      	b.n	8002ef8 <SPI_EndRxTxTransaction+0xe8>
 8002f44:	20000000 	.word	0x20000000

08002f48 <HAL_SPI_Init>:
 8002f48:	2800      	cmp	r0, #0
 8002f4a:	d07b      	beq.n	8003044 <HAL_SPI_Init+0xfc>
 8002f4c:	f8d0 c024 	ldr.w	ip, [r0, #36]	; 0x24
 8002f50:	e92d 41f0 	stmdb	sp!, {r4, r5, r6, r7, r8, lr}
 8002f54:	4604      	mov	r4, r0
 8002f56:	f1bc 0f00 	cmp.w	ip, #0
 8002f5a:	d058      	beq.n	800300e <HAL_SPI_Init+0xc6>
 8002f5c:	2300      	movs	r3, #0
 8002f5e:	e9c0 3304 	strd	r3, r3, [r0, #16]
 8002f62:	f894 305d 	ldrb.w	r3, [r4, #93]	; 0x5d
 8002f66:	2200      	movs	r2, #0
 8002f68:	f003 01ff 	and.w	r1, r3, #255	; 0xff
 8002f6c:	62a2      	str	r2, [r4, #40]	; 0x28
 8002f6e:	2b00      	cmp	r3, #0
 8002f70:	d05a      	beq.n	8003028 <HAL_SPI_Init+0xe0>
 8002f72:	6821      	ldr	r1, [r4, #0]
 8002f74:	68e2      	ldr	r2, [r4, #12]
 8002f76:	2302      	movs	r3, #2
 8002f78:	f884 305d 	strb.w	r3, [r4, #93]	; 0x5d
 8002f7c:	680b      	ldr	r3, [r1, #0]
 8002f7e:	f5b2 6fe0 	cmp.w	r2, #1792	; 0x700
 8002f82:	f023 0340 	bic.w	r3, r3, #64	; 0x40
 8002f86:	600b      	str	r3, [r1, #0]
 8002f88:	d948      	bls.n	800301c <HAL_SPI_Init+0xd4>
 8002f8a:	f5b2 6f70 	cmp.w	r2, #3840	; 0xf00
 8002f8e:	d15b      	bne.n	8003048 <HAL_SPI_Init+0x100>
 8002f90:	6aa3      	ldr	r3, [r4, #40]	; 0x28
 8002f92:	2700      	movs	r7, #0
 8002f94:	f403 5000 	and.w	r0, r3, #8192	; 0x2000
 8002f98:	e9d4 3601 	ldrd	r3, r6, [r4, #4]
 8002f9c:	6925      	ldr	r5, [r4, #16]
 8002f9e:	f8d4 e018 	ldr.w	lr, [r4, #24]
 8002fa2:	f406 4604 	and.w	r6, r6, #33792	; 0x8400
 8002fa6:	f403 7382 	and.w	r3, r3, #260	; 0x104
 8002faa:	4333      	orrs	r3, r6
 8002fac:	f005 0502 	and.w	r5, r5, #2
 8002fb0:	432b      	orrs	r3, r5
 8002fb2:	6965      	ldr	r5, [r4, #20]
 8002fb4:	f402 6870 	and.w	r8, r2, #3840	; 0xf00
 8002fb8:	f005 0501 	and.w	r5, r5, #1
 8002fbc:	6b62      	ldr	r2, [r4, #52]	; 0x34
 8002fbe:	432b      	orrs	r3, r5
 8002fc0:	e9d4 6507 	ldrd	r6, r5, [r4, #28]
 8002fc4:	f002 0208 	and.w	r2, r2, #8
 8002fc8:	ea42 0208 	orr.w	r2, r2, r8
 8002fcc:	ea4f 481e 	mov.w	r8, lr, lsr #16
 8002fd0:	f40e 7e00 	and.w	lr, lr, #512	; 0x200
 8002fd4:	f008 0804 	and.w	r8, r8, #4
 8002fd8:	ea43 030e 	orr.w	r3, r3, lr
 8002fdc:	f006 0638 	and.w	r6, r6, #56	; 0x38
 8002fe0:	ea42 0208 	orr.w	r2, r2, r8
 8002fe4:	4333      	orrs	r3, r6
 8002fe6:	f005 0580 	and.w	r5, r5, #128	; 0x80
 8002fea:	f00c 0c10 	and.w	ip, ip, #16
 8002fee:	ea42 0c0c 	orr.w	ip, r2, ip
 8002ff2:	432b      	orrs	r3, r5
 8002ff4:	4303      	orrs	r3, r0
 8002ff6:	2200      	movs	r2, #0
 8002ff8:	ea4c 0707 	orr.w	r7, ip, r7
 8002ffc:	2501      	movs	r5, #1
 8002ffe:	600b      	str	r3, [r1, #0]
 8003000:	604f      	str	r7, [r1, #4]
 8003002:	6622      	str	r2, [r4, #96]	; 0x60
 8003004:	f884 505d 	strb.w	r5, [r4, #93]	; 0x5d
 8003008:	4610      	mov	r0, r2
 800300a:	e8bd 81f0 	ldmia.w	sp!, {r4, r5, r6, r7, r8, pc}
 800300e:	6843      	ldr	r3, [r0, #4]
 8003010:	f5b3 7f82 	cmp.w	r3, #260	; 0x104
 8003014:	d0a5      	beq.n	8002f62 <HAL_SPI_Init+0x1a>
 8003016:	f8c0 c01c 	str.w	ip, [r0, #28]
 800301a:	e7a2      	b.n	8002f62 <HAL_SPI_Init+0x1a>
 800301c:	d00c      	beq.n	8003038 <HAL_SPI_Init+0xf0>
 800301e:	f44f 5780 	mov.w	r7, #4096	; 0x1000
 8003022:	2000      	movs	r0, #0
 8003024:	62a0      	str	r0, [r4, #40]	; 0x28
 8003026:	e7b7      	b.n	8002f98 <HAL_SPI_Init+0x50>
 8003028:	f884 105c 	strb.w	r1, [r4, #92]	; 0x5c
 800302c:	4620      	mov	r0, r4
 800302e:	f7fe fd81 	bl	8001b34 <HAL_SPI_MspInit>
 8003032:	f8d4 c024 	ldr.w	ip, [r4, #36]	; 0x24
 8003036:	e79c      	b.n	8002f72 <HAL_SPI_Init+0x2a>
 8003038:	6aa3      	ldr	r3, [r4, #40]	; 0x28
 800303a:	f44f 5780 	mov.w	r7, #4096	; 0x1000
 800303e:	f403 5000 	and.w	r0, r3, #8192	; 0x2000
 8003042:	e7a9      	b.n	8002f98 <HAL_SPI_Init+0x50>
 8003044:	2001      	movs	r0, #1
 8003046:	4770      	bx	lr
 8003048:	2700      	movs	r7, #0
 800304a:	e7ea      	b.n	8003022 <HAL_SPI_Init+0xda>

0800304c <HAL_SPI_Transmit>:
 800304c:	e92d 41f0 	stmdb	sp!, {r4, r5, r6, r7, r8, lr}
 8003050:	4604      	mov	r4, r0
 8003052:	f890 005c 	ldrb.w	r0, [r0, #92]	; 0x5c
 8003056:	2801      	cmp	r0, #1
 8003058:	b082      	sub	sp, #8
 800305a:	d072      	beq.n	8003142 <HAL_SPI_Transmit+0xf6>
 800305c:	461d      	mov	r5, r3
 800305e:	2301      	movs	r3, #1
 8003060:	f884 305c 	strb.w	r3, [r4, #92]	; 0x5c
 8003064:	4688      	mov	r8, r1
 8003066:	4617      	mov	r7, r2
 8003068:	f7fe fe94 	bl	8001d94 <HAL_GetTick>
 800306c:	f894 305d 	ldrb.w	r3, [r4, #93]	; 0x5d
 8003070:	2b01      	cmp	r3, #1
 8003072:	4606      	mov	r6, r0
 8003074:	b2d8      	uxtb	r0, r3
 8003076:	d009      	beq.n	800308c <HAL_SPI_Transmit+0x40>
 8003078:	2002      	movs	r0, #2
 800307a:	2201      	movs	r2, #1
 800307c:	2300      	movs	r3, #0
 800307e:	f884 205d 	strb.w	r2, [r4, #93]	; 0x5d
 8003082:	f884 305c 	strb.w	r3, [r4, #92]	; 0x5c
 8003086:	b002      	add	sp, #8
 8003088:	e8bd 81f0 	ldmia.w	sp!, {r4, r5, r6, r7, r8, pc}
 800308c:	f1b8 0f00 	cmp.w	r8, #0
 8003090:	d0f3      	beq.n	800307a <HAL_SPI_Transmit+0x2e>
 8003092:	2f00      	cmp	r7, #0
 8003094:	d0f1      	beq.n	800307a <HAL_SPI_Transmit+0x2e>
 8003096:	68a2      	ldr	r2, [r4, #8]
 8003098:	f8c4 8038 	str.w	r8, [r4, #56]	; 0x38
 800309c:	2303      	movs	r3, #3
 800309e:	f884 305d 	strb.w	r3, [r4, #93]	; 0x5d
 80030a2:	f5b2 4f00 	cmp.w	r2, #32768	; 0x8000
 80030a6:	f04f 0300 	mov.w	r3, #0
 80030aa:	6623      	str	r3, [r4, #96]	; 0x60
 80030ac:	e9c4 3313 	strd	r3, r3, [r4, #76]	; 0x4c
 80030b0:	6423      	str	r3, [r4, #64]	; 0x40
 80030b2:	f8a4 3044 	strh.w	r3, [r4, #68]	; 0x44
 80030b6:	87e7      	strh	r7, [r4, #62]	; 0x3e
 80030b8:	87a7      	strh	r7, [r4, #60]	; 0x3c
 80030ba:	f8a4 3046 	strh.w	r3, [r4, #70]	; 0x46
 80030be:	6823      	ldr	r3, [r4, #0]
 80030c0:	d067      	beq.n	8003192 <HAL_SPI_Transmit+0x146>
 80030c2:	6819      	ldr	r1, [r3, #0]
 80030c4:	0649      	lsls	r1, r1, #25
 80030c6:	461a      	mov	r2, r3
 80030c8:	d403      	bmi.n	80030d2 <HAL_SPI_Transmit+0x86>
 80030ca:	6819      	ldr	r1, [r3, #0]
 80030cc:	f041 0140 	orr.w	r1, r1, #64	; 0x40
 80030d0:	6019      	str	r1, [r3, #0]
 80030d2:	68e1      	ldr	r1, [r4, #12]
 80030d4:	f5b1 6fe0 	cmp.w	r1, #1792	; 0x700
 80030d8:	d937      	bls.n	800314a <HAL_SPI_Transmit+0xfe>
 80030da:	6861      	ldr	r1, [r4, #4]
 80030dc:	2900      	cmp	r1, #0
 80030de:	f000 8094 	beq.w	800320a <HAL_SPI_Transmit+0x1be>
 80030e2:	2f01      	cmp	r7, #1
 80030e4:	f000 8091 	beq.w	800320a <HAL_SPI_Transmit+0x1be>
 80030e8:	8fe1      	ldrh	r1, [r4, #62]	; 0x3e
 80030ea:	b289      	uxth	r1, r1
 80030ec:	b199      	cbz	r1, 8003116 <HAL_SPI_Transmit+0xca>
 80030ee:	1c69      	adds	r1, r5, #1
 80030f0:	f040 8082 	bne.w	80031f8 <HAL_SPI_Transmit+0x1ac>
 80030f4:	689a      	ldr	r2, [r3, #8]
 80030f6:	0797      	lsls	r7, r2, #30
 80030f8:	f140 809f 	bpl.w	800323a <HAL_SPI_Transmit+0x1ee>
 80030fc:	6ba1      	ldr	r1, [r4, #56]	; 0x38
 80030fe:	f831 2b02 	ldrh.w	r2, [r1], #2
 8003102:	60da      	str	r2, [r3, #12]
 8003104:	8fe2      	ldrh	r2, [r4, #62]	; 0x3e
 8003106:	63a1      	str	r1, [r4, #56]	; 0x38
 8003108:	3a01      	subs	r2, #1
 800310a:	b292      	uxth	r2, r2
 800310c:	87e2      	strh	r2, [r4, #62]	; 0x3e
 800310e:	8fe2      	ldrh	r2, [r4, #62]	; 0x3e
 8003110:	b292      	uxth	r2, r2
 8003112:	2a00      	cmp	r2, #0
 8003114:	d1ee      	bne.n	80030f4 <HAL_SPI_Transmit+0xa8>
 8003116:	4632      	mov	r2, r6
 8003118:	4629      	mov	r1, r5
 800311a:	4620      	mov	r0, r4
 800311c:	f7ff fe78 	bl	8002e10 <SPI_EndRxTxTransaction>
 8003120:	b108      	cbz	r0, 8003126 <HAL_SPI_Transmit+0xda>
 8003122:	2320      	movs	r3, #32
 8003124:	6623      	str	r3, [r4, #96]	; 0x60
 8003126:	68a3      	ldr	r3, [r4, #8]
 8003128:	b933      	cbnz	r3, 8003138 <HAL_SPI_Transmit+0xec>
 800312a:	6822      	ldr	r2, [r4, #0]
 800312c:	9301      	str	r3, [sp, #4]
 800312e:	68d3      	ldr	r3, [r2, #12]
 8003130:	9301      	str	r3, [sp, #4]
 8003132:	6893      	ldr	r3, [r2, #8]
 8003134:	9301      	str	r3, [sp, #4]
 8003136:	9b01      	ldr	r3, [sp, #4]
 8003138:	6e20      	ldr	r0, [r4, #96]	; 0x60
 800313a:	3800      	subs	r0, #0
 800313c:	bf18      	it	ne
 800313e:	2001      	movne	r0, #1
 8003140:	e79b      	b.n	800307a <HAL_SPI_Transmit+0x2e>
 8003142:	2002      	movs	r0, #2
 8003144:	b002      	add	sp, #8
 8003146:	e8bd 81f0 	ldmia.w	sp!, {r4, r5, r6, r7, r8, pc}
 800314a:	6862      	ldr	r2, [r4, #4]
 800314c:	2a00      	cmp	r2, #0
 800314e:	d066      	beq.n	800321e <HAL_SPI_Transmit+0x1d2>
 8003150:	2f01      	cmp	r7, #1
 8003152:	d064      	beq.n	800321e <HAL_SPI_Transmit+0x1d2>
 8003154:	8fe3      	ldrh	r3, [r4, #62]	; 0x3e
 8003156:	b29b      	uxth	r3, r3
 8003158:	2b00      	cmp	r3, #0
 800315a:	d0dc      	beq.n	8003116 <HAL_SPI_Transmit+0xca>
 800315c:	1c68      	adds	r0, r5, #1
 800315e:	d011      	beq.n	8003184 <HAL_SPI_Transmit+0x138>
 8003160:	e031      	b.n	80031c6 <HAL_SPI_Transmit+0x17a>
 8003162:	8fe3      	ldrh	r3, [r4, #62]	; 0x3e
 8003164:	b29b      	uxth	r3, r3
 8003166:	2b01      	cmp	r3, #1
 8003168:	d970      	bls.n	800324c <HAL_SPI_Transmit+0x200>
 800316a:	6ba1      	ldr	r1, [r4, #56]	; 0x38
 800316c:	f831 3b02 	ldrh.w	r3, [r1], #2
 8003170:	60d3      	str	r3, [r2, #12]
 8003172:	8fe3      	ldrh	r3, [r4, #62]	; 0x3e
 8003174:	63a1      	str	r1, [r4, #56]	; 0x38
 8003176:	3b02      	subs	r3, #2
 8003178:	b29b      	uxth	r3, r3
 800317a:	87e3      	strh	r3, [r4, #62]	; 0x3e
 800317c:	8fe2      	ldrh	r2, [r4, #62]	; 0x3e
 800317e:	b292      	uxth	r2, r2
 8003180:	2a00      	cmp	r2, #0
 8003182:	d0c8      	beq.n	8003116 <HAL_SPI_Transmit+0xca>
 8003184:	6822      	ldr	r2, [r4, #0]
 8003186:	6893      	ldr	r3, [r2, #8]
 8003188:	0799      	lsls	r1, r3, #30
 800318a:	d4ea      	bmi.n	8003162 <HAL_SPI_Transmit+0x116>
 800318c:	f7fe fe02 	bl	8001d94 <HAL_GetTick>
 8003190:	e7f4      	b.n	800317c <HAL_SPI_Transmit+0x130>
 8003192:	681a      	ldr	r2, [r3, #0]
 8003194:	f022 0240 	bic.w	r2, r2, #64	; 0x40
 8003198:	601a      	str	r2, [r3, #0]
 800319a:	681a      	ldr	r2, [r3, #0]
 800319c:	f442 4280 	orr.w	r2, r2, #16384	; 0x4000
 80031a0:	601a      	str	r2, [r3, #0]
 80031a2:	e78e      	b.n	80030c2 <HAL_SPI_Transmit+0x76>
 80031a4:	8fe3      	ldrh	r3, [r4, #62]	; 0x3e
 80031a6:	b29b      	uxth	r3, r3
 80031a8:	2b01      	cmp	r3, #1
 80031aa:	d95a      	bls.n	8003262 <HAL_SPI_Transmit+0x216>
 80031ac:	6ba1      	ldr	r1, [r4, #56]	; 0x38
 80031ae:	f831 3b02 	ldrh.w	r3, [r1], #2
 80031b2:	60d3      	str	r3, [r2, #12]
 80031b4:	8fe3      	ldrh	r3, [r4, #62]	; 0x3e
 80031b6:	63a1      	str	r1, [r4, #56]	; 0x38
 80031b8:	3b02      	subs	r3, #2
 80031ba:	b29b      	uxth	r3, r3
 80031bc:	87e3      	strh	r3, [r4, #62]	; 0x3e
 80031be:	8fe3      	ldrh	r3, [r4, #62]	; 0x3e
 80031c0:	b29b      	uxth	r3, r3
 80031c2:	2b00      	cmp	r3, #0
 80031c4:	d0a7      	beq.n	8003116 <HAL_SPI_Transmit+0xca>
 80031c6:	6822      	ldr	r2, [r4, #0]
 80031c8:	6893      	ldr	r3, [r2, #8]
 80031ca:	079b      	lsls	r3, r3, #30
 80031cc:	d4ea      	bmi.n	80031a4 <HAL_SPI_Transmit+0x158>
 80031ce:	f7fe fde1 	bl	8001d94 <HAL_GetTick>
 80031d2:	1b80      	subs	r0, r0, r6
 80031d4:	42a8      	cmp	r0, r5
 80031d6:	d3f2      	bcc.n	80031be <HAL_SPI_Transmit+0x172>
 80031d8:	2003      	movs	r0, #3
 80031da:	e74e      	b.n	800307a <HAL_SPI_Transmit+0x2e>
 80031dc:	6ba1      	ldr	r1, [r4, #56]	; 0x38
 80031de:	f831 3b02 	ldrh.w	r3, [r1], #2
 80031e2:	60d3      	str	r3, [r2, #12]
 80031e4:	8fe3      	ldrh	r3, [r4, #62]	; 0x3e
 80031e6:	63a1      	str	r1, [r4, #56]	; 0x38
 80031e8:	3b01      	subs	r3, #1
 80031ea:	b29b      	uxth	r3, r3
 80031ec:	87e3      	strh	r3, [r4, #62]	; 0x3e
 80031ee:	8fe3      	ldrh	r3, [r4, #62]	; 0x3e
 80031f0:	b29b      	uxth	r3, r3
 80031f2:	2b00      	cmp	r3, #0
 80031f4:	d08f      	beq.n	8003116 <HAL_SPI_Transmit+0xca>
 80031f6:	6822      	ldr	r2, [r4, #0]
 80031f8:	6893      	ldr	r3, [r2, #8]
 80031fa:	0798      	lsls	r0, r3, #30
 80031fc:	d4ee      	bmi.n	80031dc <HAL_SPI_Transmit+0x190>
 80031fe:	f7fe fdc9 	bl	8001d94 <HAL_GetTick>
 8003202:	1b80      	subs	r0, r0, r6
 8003204:	42a8      	cmp	r0, r5
 8003206:	d3f2      	bcc.n	80031ee <HAL_SPI_Transmit+0x1a2>
 8003208:	e7e6      	b.n	80031d8 <HAL_SPI_Transmit+0x18c>
 800320a:	4641      	mov	r1, r8
 800320c:	f831 0b02 	ldrh.w	r0, [r1], #2
 8003210:	60d8      	str	r0, [r3, #12]
 8003212:	8fe0      	ldrh	r0, [r4, #62]	; 0x3e
 8003214:	63a1      	str	r1, [r4, #56]	; 0x38
 8003216:	1e41      	subs	r1, r0, #1
 8003218:	b289      	uxth	r1, r1
 800321a:	87e1      	strh	r1, [r4, #62]	; 0x3e
 800321c:	e764      	b.n	80030e8 <HAL_SPI_Transmit+0x9c>
 800321e:	8fe2      	ldrh	r2, [r4, #62]	; 0x3e
 8003220:	b292      	uxth	r2, r2
 8003222:	2a01      	cmp	r2, #1
 8003224:	d928      	bls.n	8003278 <HAL_SPI_Transmit+0x22c>
 8003226:	4641      	mov	r1, r8
 8003228:	f831 2b02 	ldrh.w	r2, [r1], #2
 800322c:	60da      	str	r2, [r3, #12]
 800322e:	8fe3      	ldrh	r3, [r4, #62]	; 0x3e
 8003230:	63a1      	str	r1, [r4, #56]	; 0x38
 8003232:	3b02      	subs	r3, #2
 8003234:	b29b      	uxth	r3, r3
 8003236:	87e3      	strh	r3, [r4, #62]	; 0x3e
 8003238:	e78c      	b.n	8003154 <HAL_SPI_Transmit+0x108>
 800323a:	f7fe fdab 	bl	8001d94 <HAL_GetTick>
 800323e:	8fe3      	ldrh	r3, [r4, #62]	; 0x3e
 8003240:	b29b      	uxth	r3, r3
 8003242:	2b00      	cmp	r3, #0
 8003244:	f43f af67 	beq.w	8003116 <HAL_SPI_Transmit+0xca>
 8003248:	6823      	ldr	r3, [r4, #0]
 800324a:	e753      	b.n	80030f4 <HAL_SPI_Transmit+0xa8>
 800324c:	6ba3      	ldr	r3, [r4, #56]	; 0x38
 800324e:	781b      	ldrb	r3, [r3, #0]
 8003250:	7313      	strb	r3, [r2, #12]
 8003252:	8fe3      	ldrh	r3, [r4, #62]	; 0x3e
 8003254:	6ba2      	ldr	r2, [r4, #56]	; 0x38
 8003256:	3b01      	subs	r3, #1
 8003258:	b29b      	uxth	r3, r3
 800325a:	3201      	adds	r2, #1
 800325c:	87e3      	strh	r3, [r4, #62]	; 0x3e
 800325e:	63a2      	str	r2, [r4, #56]	; 0x38
 8003260:	e78c      	b.n	800317c <HAL_SPI_Transmit+0x130>
 8003262:	6ba3      	ldr	r3, [r4, #56]	; 0x38
 8003264:	781b      	ldrb	r3, [r3, #0]
 8003266:	7313      	strb	r3, [r2, #12]
 8003268:	8fe3      	ldrh	r3, [r4, #62]	; 0x3e
 800326a:	6ba2      	ldr	r2, [r4, #56]	; 0x38
 800326c:	3b01      	subs	r3, #1
 800326e:	b29b      	uxth	r3, r3
 8003270:	3201      	adds	r2, #1
 8003272:	87e3      	strh	r3, [r4, #62]	; 0x3e
 8003274:	63a2      	str	r2, [r4, #56]	; 0x38
 8003276:	e7a2      	b.n	80031be <HAL_SPI_Transmit+0x172>
 8003278:	f898 2000 	ldrb.w	r2, [r8]
 800327c:	731a      	strb	r2, [r3, #12]
 800327e:	8fe3      	ldrh	r3, [r4, #62]	; 0x3e
 8003280:	6ba2      	ldr	r2, [r4, #56]	; 0x38
 8003282:	3b01      	subs	r3, #1
 8003284:	b29b      	uxth	r3, r3
 8003286:	3201      	adds	r2, #1
 8003288:	87e3      	strh	r3, [r4, #62]	; 0x3e
 800328a:	63a2      	str	r2, [r4, #56]	; 0x38
 800328c:	e762      	b.n	8003154 <HAL_SPI_Transmit+0x108>
 800328e:	bf00      	nop

08003290 <HAL_TIM_Base_Init>:
 8003290:	2800      	cmp	r0, #0
 8003292:	d06d      	beq.n	8003370 <HAL_TIM_Base_Init+0xe0>
 8003294:	b538      	push	{r3, r4, r5, lr}
 8003296:	f890 303d 	ldrb.w	r3, [r0, #61]	; 0x3d
 800329a:	4604      	mov	r4, r0
 800329c:	f003 02ff 	and.w	r2, r3, #255	; 0xff
 80032a0:	2b00      	cmp	r3, #0
 80032a2:	d047      	beq.n	8003334 <HAL_TIM_Base_Init+0xa4>
 80032a4:	6821      	ldr	r1, [r4, #0]
 80032a6:	4a33      	ldr	r2, [pc, #204]	; (8003374 <HAL_TIM_Base_Init+0xe4>)
 80032a8:	2302      	movs	r3, #2
 80032aa:	f884 303d 	strb.w	r3, [r4, #61]	; 0x3d
 80032ae:	4291      	cmp	r1, r2
 80032b0:	680b      	ldr	r3, [r1, #0]
 80032b2:	d044      	beq.n	800333e <HAL_TIM_Base_Init+0xae>
 80032b4:	f1b1 4f80 	cmp.w	r1, #1073741824	; 0x40000000
 80032b8:	d048      	beq.n	800334c <HAL_TIM_Base_Init+0xbc>
 80032ba:	f502 52a0 	add.w	r2, r2, #5120	; 0x1400
 80032be:	4291      	cmp	r1, r2
 80032c0:	d00d      	beq.n	80032de <HAL_TIM_Base_Init+0x4e>
 80032c2:	f502 6280 	add.w	r2, r2, #1024	; 0x400
 80032c6:	4291      	cmp	r1, r2
 80032c8:	d009      	beq.n	80032de <HAL_TIM_Base_Init+0x4e>
 80032ca:	69a5      	ldr	r5, [r4, #24]
 80032cc:	68e0      	ldr	r0, [r4, #12]
 80032ce:	6862      	ldr	r2, [r4, #4]
 80032d0:	f023 0380 	bic.w	r3, r3, #128	; 0x80
 80032d4:	432b      	orrs	r3, r5
 80032d6:	600b      	str	r3, [r1, #0]
 80032d8:	62c8      	str	r0, [r1, #44]	; 0x2c
 80032da:	628a      	str	r2, [r1, #40]	; 0x28
 80032dc:	e00e      	b.n	80032fc <HAL_TIM_Base_Init+0x6c>
 80032de:	6920      	ldr	r0, [r4, #16]
 80032e0:	69a2      	ldr	r2, [r4, #24]
 80032e2:	f423 7340 	bic.w	r3, r3, #768	; 0x300
 80032e6:	4303      	orrs	r3, r0
 80032e8:	f023 0380 	bic.w	r3, r3, #128	; 0x80
 80032ec:	4313      	orrs	r3, r2
 80032ee:	600b      	str	r3, [r1, #0]
 80032f0:	68e3      	ldr	r3, [r4, #12]
 80032f2:	62cb      	str	r3, [r1, #44]	; 0x2c
 80032f4:	6863      	ldr	r3, [r4, #4]
 80032f6:	628b      	str	r3, [r1, #40]	; 0x28
 80032f8:	6963      	ldr	r3, [r4, #20]
 80032fa:	630b      	str	r3, [r1, #48]	; 0x30
 80032fc:	2301      	movs	r3, #1
 80032fe:	614b      	str	r3, [r1, #20]
 8003300:	f884 3048 	strb.w	r3, [r4, #72]	; 0x48
 8003304:	f884 303e 	strb.w	r3, [r4, #62]	; 0x3e
 8003308:	f884 303f 	strb.w	r3, [r4, #63]	; 0x3f
 800330c:	f884 3040 	strb.w	r3, [r4, #64]	; 0x40
 8003310:	f884 3041 	strb.w	r3, [r4, #65]	; 0x41
 8003314:	f884 3042 	strb.w	r3, [r4, #66]	; 0x42
 8003318:	f884 3043 	strb.w	r3, [r4, #67]	; 0x43
 800331c:	f884 3044 	strb.w	r3, [r4, #68]	; 0x44
 8003320:	f884 3045 	strb.w	r3, [r4, #69]	; 0x45
 8003324:	f884 3046 	strb.w	r3, [r4, #70]	; 0x46
 8003328:	f884 3047 	strb.w	r3, [r4, #71]	; 0x47
 800332c:	f884 303d 	strb.w	r3, [r4, #61]	; 0x3d
 8003330:	2000      	movs	r0, #0
 8003332:	bd38      	pop	{r3, r4, r5, pc}
 8003334:	f880 203c 	strb.w	r2, [r0, #60]	; 0x3c
 8003338:	f7fe fc34 	bl	8001ba4 <HAL_TIM_Base_MspInit>
 800333c:	e7b2      	b.n	80032a4 <HAL_TIM_Base_Init+0x14>
 800333e:	68a5      	ldr	r5, [r4, #8]
 8003340:	6920      	ldr	r0, [r4, #16]
 8003342:	69a2      	ldr	r2, [r4, #24]
 8003344:	f023 0370 	bic.w	r3, r3, #112	; 0x70
 8003348:	432b      	orrs	r3, r5
 800334a:	e7ca      	b.n	80032e2 <HAL_TIM_Base_Init+0x52>
 800334c:	68a5      	ldr	r5, [r4, #8]
 800334e:	6920      	ldr	r0, [r4, #16]
 8003350:	69a2      	ldr	r2, [r4, #24]
 8003352:	f023 0370 	bic.w	r3, r3, #112	; 0x70
 8003356:	432b      	orrs	r3, r5
 8003358:	f423 7340 	bic.w	r3, r3, #768	; 0x300
 800335c:	4303      	orrs	r3, r0
 800335e:	f023 0380 	bic.w	r3, r3, #128	; 0x80
 8003362:	4313      	orrs	r3, r2
 8003364:	600b      	str	r3, [r1, #0]
 8003366:	68e3      	ldr	r3, [r4, #12]
 8003368:	62cb      	str	r3, [r1, #44]	; 0x2c
 800336a:	6863      	ldr	r3, [r4, #4]
 800336c:	628b      	str	r3, [r1, #40]	; 0x28
 800336e:	e7c5      	b.n	80032fc <HAL_TIM_Base_Init+0x6c>
 8003370:	2001      	movs	r0, #1
 8003372:	4770      	bx	lr
 8003374:	40012c00 	.word	0x40012c00

08003378 <HAL_TIM_Base_Start_IT>:
 8003378:	f890 303d 	ldrb.w	r3, [r0, #61]	; 0x3d
 800337c:	2b01      	cmp	r3, #1
 800337e:	d116      	bne.n	80033ae <HAL_TIM_Base_Start_IT+0x36>
 8003380:	6803      	ldr	r3, [r0, #0]
 8003382:	4911      	ldr	r1, [pc, #68]	; (80033c8 <HAL_TIM_Base_Start_IT+0x50>)
 8003384:	2202      	movs	r2, #2
 8003386:	f880 203d 	strb.w	r2, [r0, #61]	; 0x3d
 800338a:	68da      	ldr	r2, [r3, #12]
 800338c:	428b      	cmp	r3, r1
 800338e:	f042 0201 	orr.w	r2, r2, #1
 8003392:	60da      	str	r2, [r3, #12]
 8003394:	d00d      	beq.n	80033b2 <HAL_TIM_Base_Start_IT+0x3a>
 8003396:	f1b3 4f80 	cmp.w	r3, #1073741824	; 0x40000000
 800339a:	d00a      	beq.n	80033b2 <HAL_TIM_Base_Start_IT+0x3a>
 800339c:	4a0b      	ldr	r2, [pc, #44]	; (80033cc <HAL_TIM_Base_Start_IT+0x54>)
 800339e:	4293      	cmp	r3, r2
 80033a0:	d007      	beq.n	80033b2 <HAL_TIM_Base_Start_IT+0x3a>
 80033a2:	681a      	ldr	r2, [r3, #0]
 80033a4:	f042 0201 	orr.w	r2, r2, #1
 80033a8:	601a      	str	r2, [r3, #0]
 80033aa:	2000      	movs	r0, #0
 80033ac:	4770      	bx	lr
 80033ae:	2001      	movs	r0, #1
 80033b0:	4770      	bx	lr
 80033b2:	6899      	ldr	r1, [r3, #8]
 80033b4:	4a06      	ldr	r2, [pc, #24]	; (80033d0 <HAL_TIM_Base_Start_IT+0x58>)
 80033b6:	400a      	ands	r2, r1
 80033b8:	2a06      	cmp	r2, #6
 80033ba:	d002      	beq.n	80033c2 <HAL_TIM_Base_Start_IT+0x4a>
 80033bc:	f5b2 3f80 	cmp.w	r2, #65536	; 0x10000
 80033c0:	d1ef      	bne.n	80033a2 <HAL_TIM_Base_Start_IT+0x2a>
 80033c2:	2000      	movs	r0, #0
 80033c4:	4770      	bx	lr
 80033c6:	bf00      	nop
 80033c8:	40012c00 	.word	0x40012c00
 80033cc:	40014000 	.word	0x40014000
 80033d0:	00010007 	.word	0x00010007

080033d4 <HAL_TIM_GenerateEvent>:
 80033d4:	f890 203c 	ldrb.w	r2, [r0, #60]	; 0x3c
 80033d8:	2a01      	cmp	r2, #1
 80033da:	d00f      	beq.n	80033fc <HAL_TIM_GenerateEvent+0x28>
 80033dc:	b430      	push	{r4, r5}
 80033de:	4603      	mov	r3, r0
 80033e0:	6800      	ldr	r0, [r0, #0]
 80033e2:	2502      	movs	r5, #2
 80033e4:	2401      	movs	r4, #1
 80033e6:	2200      	movs	r2, #0
 80033e8:	f883 503d 	strb.w	r5, [r3, #61]	; 0x3d
 80033ec:	6141      	str	r1, [r0, #20]
 80033ee:	f883 403d 	strb.w	r4, [r3, #61]	; 0x3d
 80033f2:	f883 203c 	strb.w	r2, [r3, #60]	; 0x3c
 80033f6:	4610      	mov	r0, r2
 80033f8:	bc30      	pop	{r4, r5}
 80033fa:	4770      	bx	lr
 80033fc:	2002      	movs	r0, #2
 80033fe:	4770      	bx	lr

08003400 <HAL_TIM_OC_DelayElapsedCallback>:
 8003400:	4770      	bx	lr
 8003402:	bf00      	nop

08003404 <HAL_TIM_IC_CaptureCallback>:
 8003404:	4770      	bx	lr
 8003406:	bf00      	nop

08003408 <HAL_TIM_PWM_PulseFinishedCallback>:
 8003408:	4770      	bx	lr
 800340a:	bf00      	nop

0800340c <HAL_TIM_TriggerCallback>:
 800340c:	4770      	bx	lr
 800340e:	bf00      	nop

08003410 <HAL_TIM_IRQHandler>:
 8003410:	6803      	ldr	r3, [r0, #0]
 8003412:	691a      	ldr	r2, [r3, #16]
 8003414:	0791      	lsls	r1, r2, #30
 8003416:	b510      	push	{r4, lr}
 8003418:	4604      	mov	r4, r0
 800341a:	d502      	bpl.n	8003422 <HAL_TIM_IRQHandler+0x12>
 800341c:	68da      	ldr	r2, [r3, #12]
 800341e:	0792      	lsls	r2, r2, #30
 8003420:	d468      	bmi.n	80034f4 <HAL_TIM_IRQHandler+0xe4>
 8003422:	691a      	ldr	r2, [r3, #16]
 8003424:	0752      	lsls	r2, r2, #29
 8003426:	d502      	bpl.n	800342e <HAL_TIM_IRQHandler+0x1e>
 8003428:	68da      	ldr	r2, [r3, #12]
 800342a:	0750      	lsls	r0, r2, #29
 800342c:	d44f      	bmi.n	80034ce <HAL_TIM_IRQHandler+0xbe>
 800342e:	691a      	ldr	r2, [r3, #16]
 8003430:	0711      	lsls	r1, r2, #28
 8003432:	d502      	bpl.n	800343a <HAL_TIM_IRQHandler+0x2a>
 8003434:	68da      	ldr	r2, [r3, #12]
 8003436:	0712      	lsls	r2, r2, #28
 8003438:	d437      	bmi.n	80034aa <HAL_TIM_IRQHandler+0x9a>
 800343a:	691a      	ldr	r2, [r3, #16]
 800343c:	06d0      	lsls	r0, r2, #27
 800343e:	d502      	bpl.n	8003446 <HAL_TIM_IRQHandler+0x36>
 8003440:	68da      	ldr	r2, [r3, #12]
 8003442:	06d1      	lsls	r1, r2, #27
 8003444:	d41e      	bmi.n	8003484 <HAL_TIM_IRQHandler+0x74>
 8003446:	691a      	ldr	r2, [r3, #16]
 8003448:	07d2      	lsls	r2, r2, #31
 800344a:	d502      	bpl.n	8003452 <HAL_TIM_IRQHandler+0x42>
 800344c:	68da      	ldr	r2, [r3, #12]
 800344e:	07d0      	lsls	r0, r2, #31
 8003450:	d469      	bmi.n	8003526 <HAL_TIM_IRQHandler+0x116>
 8003452:	691a      	ldr	r2, [r3, #16]
 8003454:	0611      	lsls	r1, r2, #24
 8003456:	d502      	bpl.n	800345e <HAL_TIM_IRQHandler+0x4e>
 8003458:	68da      	ldr	r2, [r3, #12]
 800345a:	0612      	lsls	r2, r2, #24
 800345c:	d46b      	bmi.n	8003536 <HAL_TIM_IRQHandler+0x126>
 800345e:	691a      	ldr	r2, [r3, #16]
 8003460:	05d0      	lsls	r0, r2, #23
 8003462:	d502      	bpl.n	800346a <HAL_TIM_IRQHandler+0x5a>
 8003464:	68da      	ldr	r2, [r3, #12]
 8003466:	0611      	lsls	r1, r2, #24
 8003468:	d46d      	bmi.n	8003546 <HAL_TIM_IRQHandler+0x136>
 800346a:	691a      	ldr	r2, [r3, #16]
 800346c:	0652      	lsls	r2, r2, #25
 800346e:	d502      	bpl.n	8003476 <HAL_TIM_IRQHandler+0x66>
 8003470:	68da      	ldr	r2, [r3, #12]
 8003472:	0650      	lsls	r0, r2, #25
 8003474:	d46f      	bmi.n	8003556 <HAL_TIM_IRQHandler+0x146>
 8003476:	691a      	ldr	r2, [r3, #16]
 8003478:	0691      	lsls	r1, r2, #26
 800347a:	d502      	bpl.n	8003482 <HAL_TIM_IRQHandler+0x72>
 800347c:	68da      	ldr	r2, [r3, #12]
 800347e:	0692      	lsls	r2, r2, #26
 8003480:	d449      	bmi.n	8003516 <HAL_TIM_IRQHandler+0x106>
 8003482:	bd10      	pop	{r4, pc}
 8003484:	f06f 0110 	mvn.w	r1, #16
 8003488:	2208      	movs	r2, #8
 800348a:	6119      	str	r1, [r3, #16]
 800348c:	7722      	strb	r2, [r4, #28]
 800348e:	69db      	ldr	r3, [r3, #28]
 8003490:	f413 7f40 	tst.w	r3, #768	; 0x300
 8003494:	4620      	mov	r0, r4
 8003496:	d16f      	bne.n	8003578 <HAL_TIM_IRQHandler+0x168>
 8003498:	f7ff ffb2 	bl	8003400 <HAL_TIM_OC_DelayElapsedCallback>
 800349c:	4620      	mov	r0, r4
 800349e:	f7ff ffb3 	bl	8003408 <HAL_TIM_PWM_PulseFinishedCallback>
 80034a2:	2200      	movs	r2, #0
 80034a4:	6823      	ldr	r3, [r4, #0]
 80034a6:	7722      	strb	r2, [r4, #28]
 80034a8:	e7cd      	b.n	8003446 <HAL_TIM_IRQHandler+0x36>
 80034aa:	f06f 0108 	mvn.w	r1, #8
 80034ae:	2204      	movs	r2, #4
 80034b0:	6119      	str	r1, [r3, #16]
 80034b2:	7722      	strb	r2, [r4, #28]
 80034b4:	69db      	ldr	r3, [r3, #28]
 80034b6:	079b      	lsls	r3, r3, #30
 80034b8:	4620      	mov	r0, r4
 80034ba:	d15a      	bne.n	8003572 <HAL_TIM_IRQHandler+0x162>
 80034bc:	f7ff ffa0 	bl	8003400 <HAL_TIM_OC_DelayElapsedCallback>
 80034c0:	4620      	mov	r0, r4
 80034c2:	f7ff ffa1 	bl	8003408 <HAL_TIM_PWM_PulseFinishedCallback>
 80034c6:	2200      	movs	r2, #0
 80034c8:	6823      	ldr	r3, [r4, #0]
 80034ca:	7722      	strb	r2, [r4, #28]
 80034cc:	e7b5      	b.n	800343a <HAL_TIM_IRQHandler+0x2a>
 80034ce:	f06f 0104 	mvn.w	r1, #4
 80034d2:	2202      	movs	r2, #2
 80034d4:	6119      	str	r1, [r3, #16]
 80034d6:	7722      	strb	r2, [r4, #28]
 80034d8:	699b      	ldr	r3, [r3, #24]
 80034da:	f413 7f40 	tst.w	r3, #768	; 0x300
 80034de:	4620      	mov	r0, r4
 80034e0:	d144      	bne.n	800356c <HAL_TIM_IRQHandler+0x15c>
 80034e2:	f7ff ff8d 	bl	8003400 <HAL_TIM_OC_DelayElapsedCallback>
 80034e6:	4620      	mov	r0, r4
 80034e8:	f7ff ff8e 	bl	8003408 <HAL_TIM_PWM_PulseFinishedCallback>
 80034ec:	2200      	movs	r2, #0
 80034ee:	6823      	ldr	r3, [r4, #0]
 80034f0:	7722      	strb	r2, [r4, #28]
 80034f2:	e79c      	b.n	800342e <HAL_TIM_IRQHandler+0x1e>
 80034f4:	f06f 0102 	mvn.w	r1, #2
 80034f8:	2201      	movs	r2, #1
 80034fa:	6119      	str	r1, [r3, #16]
 80034fc:	7702      	strb	r2, [r0, #28]
 80034fe:	699b      	ldr	r3, [r3, #24]
 8003500:	0799      	lsls	r1, r3, #30
 8003502:	d130      	bne.n	8003566 <HAL_TIM_IRQHandler+0x156>
 8003504:	f7ff ff7c 	bl	8003400 <HAL_TIM_OC_DelayElapsedCallback>
 8003508:	4620      	mov	r0, r4
 800350a:	f7ff ff7d 	bl	8003408 <HAL_TIM_PWM_PulseFinishedCallback>
 800350e:	2200      	movs	r2, #0
 8003510:	6823      	ldr	r3, [r4, #0]
 8003512:	7722      	strb	r2, [r4, #28]
 8003514:	e785      	b.n	8003422 <HAL_TIM_IRQHandler+0x12>
 8003516:	f06f 0220 	mvn.w	r2, #32
 800351a:	4620      	mov	r0, r4
 800351c:	611a      	str	r2, [r3, #16]
 800351e:	e8bd 4010 	ldmia.w	sp!, {r4, lr}
 8003522:	f000 b865 	b.w	80035f0 <HAL_TIMEx_CommutCallback>
 8003526:	f06f 0201 	mvn.w	r2, #1
 800352a:	611a      	str	r2, [r3, #16]
 800352c:	4620      	mov	r0, r4
 800352e:	f7fe fa7d 	bl	8001a2c <HAL_TIM_PeriodElapsedCallback>
 8003532:	6823      	ldr	r3, [r4, #0]
 8003534:	e78d      	b.n	8003452 <HAL_TIM_IRQHandler+0x42>
 8003536:	f06f 0280 	mvn.w	r2, #128	; 0x80
 800353a:	611a      	str	r2, [r3, #16]
 800353c:	4620      	mov	r0, r4
 800353e:	f000 f859 	bl	80035f4 <HAL_TIMEx_BreakCallback>
 8003542:	6823      	ldr	r3, [r4, #0]
 8003544:	e78b      	b.n	800345e <HAL_TIM_IRQHandler+0x4e>
 8003546:	f46f 7280 	mvn.w	r2, #256	; 0x100
 800354a:	611a      	str	r2, [r3, #16]
 800354c:	4620      	mov	r0, r4
 800354e:	f000 f853 	bl	80035f8 <HAL_TIMEx_Break2Callback>
 8003552:	6823      	ldr	r3, [r4, #0]
 8003554:	e789      	b.n	800346a <HAL_TIM_IRQHandler+0x5a>
 8003556:	f06f 0240 	mvn.w	r2, #64	; 0x40
 800355a:	611a      	str	r2, [r3, #16]
 800355c:	4620      	mov	r0, r4
 800355e:	f7ff ff55 	bl	800340c <HAL_TIM_TriggerCallback>
 8003562:	6823      	ldr	r3, [r4, #0]
 8003564:	e787      	b.n	8003476 <HAL_TIM_IRQHandler+0x66>
 8003566:	f7ff ff4d 	bl	8003404 <HAL_TIM_IC_CaptureCallback>
 800356a:	e7d0      	b.n	800350e <HAL_TIM_IRQHandler+0xfe>
 800356c:	f7ff ff4a 	bl	8003404 <HAL_TIM_IC_CaptureCallback>
 8003570:	e7bc      	b.n	80034ec <HAL_TIM_IRQHandler+0xdc>
 8003572:	f7ff ff47 	bl	8003404 <HAL_TIM_IC_CaptureCallback>
 8003576:	e7a6      	b.n	80034c6 <HAL_TIM_IRQHandler+0xb6>
 8003578:	f7ff ff44 	bl	8003404 <HAL_TIM_IC_CaptureCallback>
 800357c:	e791      	b.n	80034a2 <HAL_TIM_IRQHandler+0x92>
 800357e:	bf00      	nop

08003580 <HAL_TIMEx_MasterConfigSynchronization>:
 8003580:	f890 303c 	ldrb.w	r3, [r0, #60]	; 0x3c
 8003584:	2b01      	cmp	r3, #1
 8003586:	d02c      	beq.n	80035e2 <HAL_TIMEx_MasterConfigSynchronization+0x62>
 8003588:	b470      	push	{r4, r5, r6}
 800358a:	6802      	ldr	r2, [r0, #0]
 800358c:	4c16      	ldr	r4, [pc, #88]	; (80035e8 <HAL_TIMEx_MasterConfigSynchronization+0x68>)
 800358e:	2302      	movs	r3, #2
 8003590:	f880 303d 	strb.w	r3, [r0, #61]	; 0x3d
 8003594:	42a2      	cmp	r2, r4
 8003596:	6853      	ldr	r3, [r2, #4]
 8003598:	6895      	ldr	r5, [r2, #8]
 800359a:	d018      	beq.n	80035ce <HAL_TIMEx_MasterConfigSynchronization+0x4e>
 800359c:	680c      	ldr	r4, [r1, #0]
 800359e:	f023 0370 	bic.w	r3, r3, #112	; 0x70
 80035a2:	4323      	orrs	r3, r4
 80035a4:	f1b2 4f80 	cmp.w	r2, #1073741824	; 0x40000000
 80035a8:	6053      	str	r3, [r2, #4]
 80035aa:	d002      	beq.n	80035b2 <HAL_TIMEx_MasterConfigSynchronization+0x32>
 80035ac:	4b0f      	ldr	r3, [pc, #60]	; (80035ec <HAL_TIMEx_MasterConfigSynchronization+0x6c>)
 80035ae:	429a      	cmp	r2, r3
 80035b0:	d104      	bne.n	80035bc <HAL_TIMEx_MasterConfigSynchronization+0x3c>
 80035b2:	688b      	ldr	r3, [r1, #8]
 80035b4:	f025 0580 	bic.w	r5, r5, #128	; 0x80
 80035b8:	431d      	orrs	r5, r3
 80035ba:	6095      	str	r5, [r2, #8]
 80035bc:	2300      	movs	r3, #0
 80035be:	2201      	movs	r2, #1
 80035c0:	f880 203d 	strb.w	r2, [r0, #61]	; 0x3d
 80035c4:	f880 303c 	strb.w	r3, [r0, #60]	; 0x3c
 80035c8:	bc70      	pop	{r4, r5, r6}
 80035ca:	4618      	mov	r0, r3
 80035cc:	4770      	bx	lr
 80035ce:	e9d1 4600 	ldrd	r4, r6, [r1]
 80035d2:	f423 0370 	bic.w	r3, r3, #15728640	; 0xf00000
 80035d6:	4333      	orrs	r3, r6
 80035d8:	f023 0370 	bic.w	r3, r3, #112	; 0x70
 80035dc:	4323      	orrs	r3, r4
 80035de:	6053      	str	r3, [r2, #4]
 80035e0:	e7e7      	b.n	80035b2 <HAL_TIMEx_MasterConfigSynchronization+0x32>
 80035e2:	2002      	movs	r0, #2
 80035e4:	4770      	bx	lr
 80035e6:	bf00      	nop
 80035e8:	40012c00 	.word	0x40012c00
 80035ec:	40014000 	.word	0x40014000

080035f0 <HAL_TIMEx_CommutCallback>:
 80035f0:	4770      	bx	lr
 80035f2:	bf00      	nop

080035f4 <HAL_TIMEx_BreakCallback>:
 80035f4:	4770      	bx	lr
 80035f6:	bf00      	nop

080035f8 <HAL_TIMEx_Break2Callback>:
 80035f8:	4770      	bx	lr
 80035fa:	bf00      	nop

080035fc <_ZN8tkrandom9AnimationC1ERNS_11TransmitterE>:
 80035fc:	2200      	movs	r2, #0
 80035fe:	e9c0 2100 	strd	r2, r1, [r0]
 8003602:	4770      	bx	lr

08003604 <_ZN8tkrandom9Animation14ClockAnimationEv>:
 8003604:	6803      	ldr	r3, [r0, #0]
 8003606:	b510      	push	{r4, lr}
 8003608:	4604      	mov	r4, r0
 800360a:	2b08      	cmp	r3, #8
 800360c:	f200 8081 	bhi.w	8003712 <_ZN8tkrandom9Animation14ClockAnimationEv+0x10e>
 8003610:	e8df f003 	tbb	[pc, r3]
 8003614:	2a1f1407 	.word	0x2a1f1407
 8003618:	53493f35 	.word	0x53493f35
 800361c:	05          	.byte	0x05
 800361d:	00          	.byte	0x00
 800361e:	2000      	movs	r0, #0
 8003620:	bd10      	pop	{r4, pc}
 8003622:	6840      	ldr	r0, [r0, #4]
 8003624:	f64f 72ff 	movw	r2, #65535	; 0xffff
 8003628:	2104      	movs	r1, #4
 800362a:	f000 fbb5 	bl	8003d98 <_ZNK8tkrandom11Transmitter16SetLedBrightnessENS_3LedEt>
 800362e:	2301      	movs	r3, #1
 8003630:	6023      	str	r3, [r4, #0]
 8003632:	2800      	cmp	r0, #0
 8003634:	bf0c      	ite	eq
 8003636:	2001      	moveq	r0, #1
 8003638:	2002      	movne	r0, #2
 800363a:	bd10      	pop	{r4, pc}
 800363c:	6840      	ldr	r0, [r0, #4]
 800363e:	f64f 72ff 	movw	r2, #65535	; 0xffff
 8003642:	2105      	movs	r1, #5
 8003644:	f000 fba8 	bl	8003d98 <_ZNK8tkrandom11Transmitter16SetLedBrightnessENS_3LedEt>
 8003648:	2800      	cmp	r0, #0
 800364a:	d03e      	beq.n	80036ca <_ZN8tkrandom9Animation14ClockAnimationEv+0xc6>
 800364c:	2302      	movs	r3, #2
 800364e:	6023      	str	r3, [r4, #0]
 8003650:	e7ef      	b.n	8003632 <_ZN8tkrandom9Animation14ClockAnimationEv+0x2e>
 8003652:	6840      	ldr	r0, [r0, #4]
 8003654:	f64f 72ff 	movw	r2, #65535	; 0xffff
 8003658:	2106      	movs	r1, #6
 800365a:	f000 fb9d 	bl	8003d98 <_ZNK8tkrandom11Transmitter16SetLedBrightnessENS_3LedEt>
 800365e:	2800      	cmp	r0, #0
 8003660:	d051      	beq.n	8003706 <_ZN8tkrandom9Animation14ClockAnimationEv+0x102>
 8003662:	2303      	movs	r3, #3
 8003664:	6023      	str	r3, [r4, #0]
 8003666:	e7e4      	b.n	8003632 <_ZN8tkrandom9Animation14ClockAnimationEv+0x2e>
 8003668:	6840      	ldr	r0, [r0, #4]
 800366a:	f64f 72ff 	movw	r2, #65535	; 0xffff
 800366e:	2107      	movs	r1, #7
 8003670:	f000 fb92 	bl	8003d98 <_ZNK8tkrandom11Transmitter16SetLedBrightnessENS_3LedEt>
 8003674:	2800      	cmp	r0, #0
 8003676:	d040      	beq.n	80036fa <_ZN8tkrandom9Animation14ClockAnimationEv+0xf6>
 8003678:	2304      	movs	r3, #4
 800367a:	6023      	str	r3, [r4, #0]
 800367c:	e7d9      	b.n	8003632 <_ZN8tkrandom9Animation14ClockAnimationEv+0x2e>
 800367e:	6840      	ldr	r0, [r0, #4]
 8003680:	f64f 72ff 	movw	r2, #65535	; 0xffff
 8003684:	2106      	movs	r1, #6
 8003686:	f000 fb87 	bl	8003d98 <_ZNK8tkrandom11Transmitter16SetLedBrightnessENS_3LedEt>
 800368a:	b380      	cbz	r0, 80036ee <_ZN8tkrandom9Animation14ClockAnimationEv+0xea>
 800368c:	2305      	movs	r3, #5
 800368e:	6023      	str	r3, [r4, #0]
 8003690:	e7cf      	b.n	8003632 <_ZN8tkrandom9Animation14ClockAnimationEv+0x2e>
 8003692:	6840      	ldr	r0, [r0, #4]
 8003694:	f64f 72ff 	movw	r2, #65535	; 0xffff
 8003698:	2105      	movs	r1, #5
 800369a:	f000 fb7d 	bl	8003d98 <_ZNK8tkrandom11Transmitter16SetLedBrightnessENS_3LedEt>
 800369e:	b300      	cbz	r0, 80036e2 <_ZN8tkrandom9Animation14ClockAnimationEv+0xde>
 80036a0:	2306      	movs	r3, #6
 80036a2:	6023      	str	r3, [r4, #0]
 80036a4:	e7c5      	b.n	8003632 <_ZN8tkrandom9Animation14ClockAnimationEv+0x2e>
 80036a6:	6840      	ldr	r0, [r0, #4]
 80036a8:	f64f 72ff 	movw	r2, #65535	; 0xffff
 80036ac:	2104      	movs	r1, #4
 80036ae:	f000 fb73 	bl	8003d98 <_ZNK8tkrandom11Transmitter16SetLedBrightnessENS_3LedEt>
 80036b2:	b180      	cbz	r0, 80036d6 <_ZN8tkrandom9Animation14ClockAnimationEv+0xd2>
 80036b4:	2307      	movs	r3, #7
 80036b6:	6023      	str	r3, [r4, #0]
 80036b8:	e7bb      	b.n	8003632 <_ZN8tkrandom9Animation14ClockAnimationEv+0x2e>
 80036ba:	6840      	ldr	r0, [r0, #4]
 80036bc:	2200      	movs	r2, #0
 80036be:	2104      	movs	r1, #4
 80036c0:	f000 fb6a 	bl	8003d98 <_ZNK8tkrandom11Transmitter16SetLedBrightnessENS_3LedEt>
 80036c4:	2308      	movs	r3, #8
 80036c6:	6023      	str	r3, [r4, #0]
 80036c8:	e7b3      	b.n	8003632 <_ZN8tkrandom9Animation14ClockAnimationEv+0x2e>
 80036ca:	4602      	mov	r2, r0
 80036cc:	2104      	movs	r1, #4
 80036ce:	6860      	ldr	r0, [r4, #4]
 80036d0:	f000 fb62 	bl	8003d98 <_ZNK8tkrandom11Transmitter16SetLedBrightnessENS_3LedEt>
 80036d4:	e7ba      	b.n	800364c <_ZN8tkrandom9Animation14ClockAnimationEv+0x48>
 80036d6:	4602      	mov	r2, r0
 80036d8:	2105      	movs	r1, #5
 80036da:	6860      	ldr	r0, [r4, #4]
 80036dc:	f000 fb5c 	bl	8003d98 <_ZNK8tkrandom11Transmitter16SetLedBrightnessENS_3LedEt>
 80036e0:	e7e8      	b.n	80036b4 <_ZN8tkrandom9Animation14ClockAnimationEv+0xb0>
 80036e2:	4602      	mov	r2, r0
 80036e4:	2106      	movs	r1, #6
 80036e6:	6860      	ldr	r0, [r4, #4]
 80036e8:	f000 fb56 	bl	8003d98 <_ZNK8tkrandom11Transmitter16SetLedBrightnessENS_3LedEt>
 80036ec:	e7d8      	b.n	80036a0 <_ZN8tkrandom9Animation14ClockAnimationEv+0x9c>
 80036ee:	4602      	mov	r2, r0
 80036f0:	2107      	movs	r1, #7
 80036f2:	6860      	ldr	r0, [r4, #4]
 80036f4:	f000 fb50 	bl	8003d98 <_ZNK8tkrandom11Transmitter16SetLedBrightnessENS_3LedEt>
 80036f8:	e7c8      	b.n	800368c <_ZN8tkrandom9Animation14ClockAnimationEv+0x88>
 80036fa:	4602      	mov	r2, r0
 80036fc:	2106      	movs	r1, #6
 80036fe:	6860      	ldr	r0, [r4, #4]
 8003700:	f000 fb4a 	bl	8003d98 <_ZNK8tkrandom11Transmitter16SetLedBrightnessENS_3LedEt>
 8003704:	e7b8      	b.n	8003678 <_ZN8tkrandom9Animation14ClockAnimationEv+0x74>
 8003706:	4602      	mov	r2, r0
 8003708:	2105      	movs	r1, #5
 800370a:	6860      	ldr	r0, [r4, #4]
 800370c:	f000 fb44 	bl	8003d98 <_ZNK8tkrandom11Transmitter16SetLedBrightnessENS_3LedEt>
 8003710:	e7a7      	b.n	8003662 <_ZN8tkrandom9Animation14ClockAnimationEv+0x5e>
 8003712:	2001      	movs	r0, #1
 8003714:	bd10      	pop	{r4, pc}
 8003716:	bf00      	nop

08003718 <_ZN8tkrandom12EventHandlerC1ERNS_12PcbStatusLedERNS_10RngHandlerERNS_9AnimationERNS_16DistributionPinsE>:
 8003718:	b430      	push	{r4, r5}
 800371a:	9d02      	ldr	r5, [sp, #8]
 800371c:	6041      	str	r1, [r0, #4]
 800371e:	6082      	str	r2, [r0, #8]
 8003720:	2101      	movs	r1, #1
 8003722:	2200      	movs	r2, #0
 8003724:	e9c0 3503 	strd	r3, r5, [r0, #12]
 8003728:	6201      	str	r1, [r0, #32]
 800372a:	bc30      	pop	{r4, r5}
 800372c:	6002      	str	r2, [r0, #0]
 800372e:	6142      	str	r2, [r0, #20]
 8003730:	7602      	strb	r2, [r0, #24]
 8003732:	61c2      	str	r2, [r0, #28]
 8003734:	4770      	bx	lr
 8003736:	bf00      	nop

08003738 <_ZN8tkrandom12EventHandler4InitEv>:
 8003738:	b510      	push	{r4, lr}
 800373a:	4604      	mov	r4, r0
 800373c:	6880      	ldr	r0, [r0, #8]
 800373e:	f000 f93f 	bl	80039c0 <_ZN8tkrandom10RngHandler4InitEv>
 8003742:	2301      	movs	r3, #1
 8003744:	75a3      	strb	r3, [r4, #22]
 8003746:	bd10      	pop	{r4, pc}

08003748 <_ZN8tkrandom12EventHandler19ProcessDistributionEv>:
 8003748:	e92d 43f8 	stmdb	sp!, {r3, r4, r5, r6, r7, r8, r9, lr}
 800374c:	e9d0 3207 	ldrd	r3, r2, [r0, #28]
 8003750:	4293      	cmp	r3, r2
 8003752:	4604      	mov	r4, r0
 8003754:	d803      	bhi.n	800375e <_ZN8tkrandom12EventHandler19ProcessDistributionEv+0x16>
 8003756:	3301      	adds	r3, #1
 8003758:	61e3      	str	r3, [r4, #28]
 800375a:	e8bd 83f8 	ldmia.w	sp!, {r3, r4, r5, r6, r7, r8, r9, pc}
 800375e:	6903      	ldr	r3, [r0, #16]
 8003760:	f04f 0800 	mov.w	r8, #0
 8003764:	8899      	ldrh	r1, [r3, #4]
 8003766:	6818      	ldr	r0, [r3, #0]
 8003768:	f884 8016 	strb.w	r8, [r4, #22]
 800376c:	f8c4 801c 	str.w	r8, [r4, #28]
 8003770:	f7fe fc72 	bl	8002058 <HAL_GPIO_ReadPin>
 8003774:	6923      	ldr	r3, [r4, #16]
 8003776:	4681      	mov	r9, r0
 8003778:	8999      	ldrh	r1, [r3, #12]
 800377a:	6898      	ldr	r0, [r3, #8]
 800377c:	f7fe fc6c 	bl	8002058 <HAL_GPIO_ReadPin>
 8003780:	6923      	ldr	r3, [r4, #16]
 8003782:	4607      	mov	r7, r0
 8003784:	8a99      	ldrh	r1, [r3, #20]
 8003786:	6918      	ldr	r0, [r3, #16]
 8003788:	f7fe fc66 	bl	8002058 <HAL_GPIO_ReadPin>
 800378c:	6923      	ldr	r3, [r4, #16]
 800378e:	4606      	mov	r6, r0
 8003790:	8b99      	ldrh	r1, [r3, #28]
 8003792:	6998      	ldr	r0, [r3, #24]
 8003794:	f7fe fc60 	bl	8002058 <HAL_GPIO_ReadPin>
 8003798:	f1a9 0201 	sub.w	r2, r9, #1
 800379c:	fab2 f282 	clz	r2, r2
 80037a0:	4605      	mov	r5, r0
 80037a2:	0952      	lsrs	r2, r2, #5
 80037a4:	68a0      	ldr	r0, [r4, #8]
 80037a6:	4641      	mov	r1, r8
 80037a8:	f000 fa86 	bl	8003cb8 <_ZN8tkrandom10RngHandler15SetDistributionENS_6OutputENS_12DistributionE>
 80037ac:	f1a7 0201 	sub.w	r2, r7, #1
 80037b0:	fab2 f282 	clz	r2, r2
 80037b4:	68a0      	ldr	r0, [r4, #8]
 80037b6:	0952      	lsrs	r2, r2, #5
 80037b8:	2101      	movs	r1, #1
 80037ba:	f000 fa7d 	bl	8003cb8 <_ZN8tkrandom10RngHandler15SetDistributionENS_6OutputENS_12DistributionE>
 80037be:	f1a6 0201 	sub.w	r2, r6, #1
 80037c2:	fab2 f282 	clz	r2, r2
 80037c6:	68a0      	ldr	r0, [r4, #8]
 80037c8:	0952      	lsrs	r2, r2, #5
 80037ca:	2102      	movs	r1, #2
 80037cc:	f000 fa74 	bl	8003cb8 <_ZN8tkrandom10RngHandler15SetDistributionENS_6OutputENS_12DistributionE>
 80037d0:	f1a5 0201 	sub.w	r2, r5, #1
 80037d4:	fab2 f282 	clz	r2, r2
 80037d8:	68a0      	ldr	r0, [r4, #8]
 80037da:	0952      	lsrs	r2, r2, #5
 80037dc:	2103      	movs	r1, #3
 80037de:	f000 fa6b 	bl	8003cb8 <_ZN8tkrandom10RngHandler15SetDistributionENS_6OutputENS_12DistributionE>
 80037e2:	69e3      	ldr	r3, [r4, #28]
 80037e4:	3301      	adds	r3, #1
 80037e6:	61e3      	str	r3, [r4, #28]
 80037e8:	e8bd 83f8 	ldmia.w	sp!, {r3, r4, r5, r6, r7, r8, r9, pc}

080037ec <_ZN8tkrandom12EventHandler3RunEv>:
 80037ec:	6803      	ldr	r3, [r0, #0]
 80037ee:	2b01      	cmp	r3, #1
 80037f0:	b510      	push	{r4, lr}
 80037f2:	4604      	mov	r4, r0
 80037f4:	d00b      	beq.n	800380e <_ZN8tkrandom12EventHandler3RunEv+0x22>
 80037f6:	7d23      	ldrb	r3, [r4, #20]
 80037f8:	b9c3      	cbnz	r3, 800382c <_ZN8tkrandom12EventHandler3RunEv+0x40>
 80037fa:	7d63      	ldrb	r3, [r4, #21]
 80037fc:	b903      	cbnz	r3, 8003800 <_ZN8tkrandom12EventHandler3RunEv+0x14>
 80037fe:	bd10      	pop	{r4, pc}
 8003800:	6860      	ldr	r0, [r4, #4]
 8003802:	2101      	movs	r1, #1
 8003804:	f000 f898 	bl	8003938 <_ZN8tkrandom12PcbStatusLed10SetLedModeENS_16PcbStatusLedModeE>
 8003808:	2300      	movs	r3, #0
 800380a:	7563      	strb	r3, [r4, #21]
 800380c:	bd10      	pop	{r4, pc}
 800380e:	7dc1      	ldrb	r1, [r0, #23]
 8003810:	7e02      	ldrb	r2, [r0, #24]
 8003812:	b909      	cbnz	r1, 8003818 <_ZN8tkrandom12EventHandler3RunEv+0x2c>
 8003814:	2a00      	cmp	r2, #0
 8003816:	d0ee      	beq.n	80037f6 <_ZN8tkrandom12EventHandler3RunEv+0xa>
 8003818:	68a0      	ldr	r0, [r4, #8]
 800381a:	f000 f911 	bl	8003a40 <_ZN8tkrandom10RngHandler14SetOutputsLedsEbb>
 800381e:	b990      	cbnz	r0, 8003846 <_ZN8tkrandom12EventHandler3RunEv+0x5a>
 8003820:	2300      	movs	r3, #0
 8003822:	75e3      	strb	r3, [r4, #23]
 8003824:	7623      	strb	r3, [r4, #24]
 8003826:	7d23      	ldrb	r3, [r4, #20]
 8003828:	2b00      	cmp	r3, #0
 800382a:	d0e6      	beq.n	80037fa <_ZN8tkrandom12EventHandler3RunEv+0xe>
 800382c:	6860      	ldr	r0, [r4, #4]
 800382e:	f000 f88d 	bl	800394c <_ZN8tkrandom12PcbStatusLed11ProcessTickEv>
 8003832:	68a0      	ldr	r0, [r4, #8]
 8003834:	f000 fa4e 	bl	8003cd4 <_ZN8tkrandom10RngHandler11ProcessTickEv>
 8003838:	7da3      	ldrb	r3, [r4, #22]
 800383a:	b983      	cbnz	r3, 800385e <_ZN8tkrandom12EventHandler3RunEv+0x72>
 800383c:	6823      	ldr	r3, [r4, #0]
 800383e:	b13b      	cbz	r3, 8003850 <_ZN8tkrandom12EventHandler3RunEv+0x64>
 8003840:	2300      	movs	r3, #0
 8003842:	7523      	strb	r3, [r4, #20]
 8003844:	e7d9      	b.n	80037fa <_ZN8tkrandom12EventHandler3RunEv+0xe>
 8003846:	6860      	ldr	r0, [r4, #4]
 8003848:	2101      	movs	r1, #1
 800384a:	f000 f875 	bl	8003938 <_ZN8tkrandom12PcbStatusLed10SetLedModeENS_16PcbStatusLedModeE>
 800384e:	e7e7      	b.n	8003820 <_ZN8tkrandom12EventHandler3RunEv+0x34>
 8003850:	68e0      	ldr	r0, [r4, #12]
 8003852:	f7ff fed7 	bl	8003604 <_ZN8tkrandom9Animation14ClockAnimationEv>
 8003856:	b930      	cbnz	r0, 8003866 <_ZN8tkrandom12EventHandler3RunEv+0x7a>
 8003858:	2301      	movs	r3, #1
 800385a:	6023      	str	r3, [r4, #0]
 800385c:	e7f0      	b.n	8003840 <_ZN8tkrandom12EventHandler3RunEv+0x54>
 800385e:	4620      	mov	r0, r4
 8003860:	f7ff ff72 	bl	8003748 <_ZN8tkrandom12EventHandler19ProcessDistributionEv>
 8003864:	e7ea      	b.n	800383c <_ZN8tkrandom12EventHandler3RunEv+0x50>
 8003866:	2802      	cmp	r0, #2
 8003868:	d1ea      	bne.n	8003840 <_ZN8tkrandom12EventHandler3RunEv+0x54>
 800386a:	6860      	ldr	r0, [r4, #4]
 800386c:	2101      	movs	r1, #1
 800386e:	f000 f863 	bl	8003938 <_ZN8tkrandom12PcbStatusLed10SetLedModeENS_16PcbStatusLedModeE>
 8003872:	e7e5      	b.n	8003840 <_ZN8tkrandom12EventHandler3RunEv+0x54>

08003874 <_ZN8tkrandom12EventHandler11SignalEventENS_5EventE>:
 8003874:	2904      	cmp	r1, #4
 8003876:	d806      	bhi.n	8003886 <_ZN8tkrandom12EventHandler11SignalEventENS_5EventE+0x12>
 8003878:	e8df f001 	tbb	[pc, r1]
 800387c:	0f0c0903 	.word	0x0f0c0903
 8003880:	06          	.byte	0x06
 8003881:	00          	.byte	0x00
 8003882:	2301      	movs	r3, #1
 8003884:	7503      	strb	r3, [r0, #20]
 8003886:	4770      	bx	lr
 8003888:	2301      	movs	r3, #1
 800388a:	7543      	strb	r3, [r0, #21]
 800388c:	4770      	bx	lr
 800388e:	2301      	movs	r3, #1
 8003890:	7583      	strb	r3, [r0, #22]
 8003892:	4770      	bx	lr
 8003894:	2301      	movs	r3, #1
 8003896:	75c3      	strb	r3, [r0, #23]
 8003898:	4770      	bx	lr
 800389a:	2301      	movs	r3, #1
 800389c:	7603      	strb	r3, [r0, #24]
 800389e:	4770      	bx	lr

080038a0 <_ZN8tkrandom9GeneratorC1EP17RNG_HandleTypeDef>:
 80038a0:	6001      	str	r1, [r0, #0]
 80038a2:	4770      	bx	lr

080038a4 <_ZNK8tkrandom9Generator22GetUniformRandomNumberEPt>:
 80038a4:	b530      	push	{r4, r5, lr}
 80038a6:	b083      	sub	sp, #12
 80038a8:	460d      	mov	r5, r1
 80038aa:	2400      	movs	r4, #0
 80038ac:	6800      	ldr	r0, [r0, #0]
 80038ae:	9401      	str	r4, [sp, #4]
 80038b0:	a901      	add	r1, sp, #4
 80038b2:	f7ff f9fd 	bl	8002cb0 <HAL_RNG_GenerateRandomNumber>
 80038b6:	b920      	cbnz	r0, 80038c2 <_ZNK8tkrandom9Generator22GetUniformRandomNumberEPt+0x1e>
 80038b8:	f8bd 4004 	ldrh.w	r4, [sp, #4]
 80038bc:	802c      	strh	r4, [r5, #0]
 80038be:	b003      	add	sp, #12
 80038c0:	bd30      	pop	{r4, r5, pc}
 80038c2:	2001      	movs	r0, #1
 80038c4:	802c      	strh	r4, [r5, #0]
 80038c6:	b003      	add	sp, #12
 80038c8:	bd30      	pop	{r4, r5, pc}
 80038ca:	bf00      	nop

080038cc <_ZNK8tkrandom9Generator21GetNormalRandomNumberEPt>:
 80038cc:	b5f0      	push	{r4, r5, r6, r7, lr}
 80038ce:	b083      	sub	sp, #12
 80038d0:	2400      	movs	r4, #0
 80038d2:	4606      	mov	r6, r0
 80038d4:	460d      	mov	r5, r1
 80038d6:	9401      	str	r4, [sp, #4]
 80038d8:	2702      	movs	r7, #2
 80038da:	6830      	ldr	r0, [r6, #0]
 80038dc:	a901      	add	r1, sp, #4
 80038de:	f7ff f9e7 	bl	8002cb0 <HAL_RNG_GenerateRandomNumber>
 80038e2:	b968      	cbnz	r0, 8003900 <_ZNK8tkrandom9Generator21GetNormalRandomNumberEPt+0x34>
 80038e4:	9a01      	ldr	r2, [sp, #4]
 80038e6:	b293      	uxth	r3, r2
 80038e8:	eb03 4312 	add.w	r3, r3, r2, lsr #16
 80038ec:	2f01      	cmp	r7, #1
 80038ee:	441c      	add	r4, r3
 80038f0:	d104      	bne.n	80038fc <_ZNK8tkrandom9Generator21GetNormalRandomNumberEPt+0x30>
 80038f2:	f3c4 048f 	ubfx	r4, r4, #2, #16
 80038f6:	802c      	strh	r4, [r5, #0]
 80038f8:	b003      	add	sp, #12
 80038fa:	bdf0      	pop	{r4, r5, r6, r7, pc}
 80038fc:	2701      	movs	r7, #1
 80038fe:	e7ec      	b.n	80038da <_ZNK8tkrandom9Generator21GetNormalRandomNumberEPt+0xe>
 8003900:	2400      	movs	r4, #0
 8003902:	2001      	movs	r0, #1
 8003904:	e7f7      	b.n	80038f6 <_ZNK8tkrandom9Generator21GetNormalRandomNumberEPt+0x2a>
 8003906:	bf00      	nop

08003908 <_ZN8tkrandom9Generator8ResetRngEv>:
 8003908:	b510      	push	{r4, lr}
 800390a:	4604      	mov	r4, r0
 800390c:	6800      	ldr	r0, [r0, #0]
 800390e:	f7ff f9b9 	bl	8002c84 <HAL_RNG_DeInit>
 8003912:	6820      	ldr	r0, [r4, #0]
 8003914:	e8bd 4010 	ldmia.w	sp!, {r4, lr}
 8003918:	f7ff b97a 	b.w	8002c10 <HAL_RNG_Init>

0800391c <_ZN8tkrandom12PcbStatusLedC1EP12GPIO_TypeDeft>:
 800391c:	b430      	push	{r4, r5}
 800391e:	2505      	movs	r5, #5
 8003920:	2430      	movs	r4, #48	; 0x30
 8003922:	6141      	str	r1, [r0, #20]
 8003924:	8302      	strh	r2, [r0, #24]
 8003926:	2132      	movs	r1, #50	; 0x32
 8003928:	2200      	movs	r2, #0
 800392a:	e9c0 5402 	strd	r5, r4, [r0, #8]
 800392e:	e9c0 2200 	strd	r2, r2, [r0]
 8003932:	bc30      	pop	{r4, r5}
 8003934:	6101      	str	r1, [r0, #16]
 8003936:	4770      	bx	lr

08003938 <_ZN8tkrandom12PcbStatusLed10SetLedModeENS_16PcbStatusLedModeE>:
 8003938:	2902      	cmp	r1, #2
 800393a:	6001      	str	r1, [r0, #0]
 800393c:	d000      	beq.n	8003940 <_ZN8tkrandom12PcbStatusLed10SetLedModeENS_16PcbStatusLedModeE+0x8>
 800393e:	4770      	bx	lr
 8003940:	8b01      	ldrh	r1, [r0, #24]
 8003942:	6940      	ldr	r0, [r0, #20]
 8003944:	2200      	movs	r2, #0
 8003946:	f7fe bb8d 	b.w	8002064 <HAL_GPIO_WritePin>
 800394a:	bf00      	nop

0800394c <_ZN8tkrandom12PcbStatusLed11ProcessTickEv>:
 800394c:	6803      	ldr	r3, [r0, #0]
 800394e:	b510      	push	{r4, lr}
 8003950:	4604      	mov	r4, r0
 8003952:	b143      	cbz	r3, 8003966 <_ZN8tkrandom12PcbStatusLed11ProcessTickEv+0x1a>
 8003954:	2b01      	cmp	r3, #1
 8003956:	d105      	bne.n	8003964 <_ZN8tkrandom12PcbStatusLed11ProcessTickEv+0x18>
 8003958:	e9d0 3201 	ldrd	r3, r2, [r0, #4]
 800395c:	3301      	adds	r3, #1
 800395e:	4293      	cmp	r3, r2
 8003960:	6043      	str	r3, [r0, #4]
 8003962:	d811      	bhi.n	8003988 <_ZN8tkrandom12PcbStatusLed11ProcessTickEv+0x3c>
 8003964:	bd10      	pop	{r4, pc}
 8003966:	6843      	ldr	r3, [r0, #4]
 8003968:	68c2      	ldr	r2, [r0, #12]
 800396a:	3301      	adds	r3, #1
 800396c:	4293      	cmp	r3, r2
 800396e:	6043      	str	r3, [r0, #4]
 8003970:	d811      	bhi.n	8003996 <_ZN8tkrandom12PcbStatusLed11ProcessTickEv+0x4a>
 8003972:	6922      	ldr	r2, [r4, #16]
 8003974:	429a      	cmp	r2, r3
 8003976:	d2f5      	bcs.n	8003964 <_ZN8tkrandom12PcbStatusLed11ProcessTickEv+0x18>
 8003978:	8b21      	ldrh	r1, [r4, #24]
 800397a:	6960      	ldr	r0, [r4, #20]
 800397c:	2200      	movs	r2, #0
 800397e:	f7fe fb71 	bl	8002064 <HAL_GPIO_WritePin>
 8003982:	2300      	movs	r3, #0
 8003984:	6063      	str	r3, [r4, #4]
 8003986:	bd10      	pop	{r4, pc}
 8003988:	8b01      	ldrh	r1, [r0, #24]
 800398a:	6940      	ldr	r0, [r0, #20]
 800398c:	f7fe fb70 	bl	8002070 <HAL_GPIO_TogglePin>
 8003990:	2300      	movs	r3, #0
 8003992:	6063      	str	r3, [r4, #4]
 8003994:	bd10      	pop	{r4, pc}
 8003996:	8b01      	ldrh	r1, [r0, #24]
 8003998:	6940      	ldr	r0, [r0, #20]
 800399a:	2201      	movs	r2, #1
 800399c:	f7fe fb62 	bl	8002064 <HAL_GPIO_WritePin>
 80039a0:	6863      	ldr	r3, [r4, #4]
 80039a2:	e7e6      	b.n	8003972 <_ZN8tkrandom12PcbStatusLed11ProcessTickEv+0x26>

080039a4 <_ZN8tkrandom10RngHandlerC1ERNS_9GeneratorERNS_11TransmitterE>:
 80039a4:	b410      	push	{r4}
 80039a6:	2400      	movs	r4, #0
 80039a8:	e9c0 4402 	strd	r4, r4, [r0, #8]
 80039ac:	e9c0 4404 	strd	r4, r4, [r0, #16]
 80039b0:	e9c0 4406 	strd	r4, r4, [r0, #24]
 80039b4:	e9c0 1200 	strd	r1, r2, [r0]
 80039b8:	f85d 4b04 	ldr.w	r4, [sp], #4
 80039bc:	4770      	bx	lr
 80039be:	bf00      	nop

080039c0 <_ZN8tkrandom10RngHandler4InitEv>:
 80039c0:	b530      	push	{r4, r5, lr}
 80039c2:	4604      	mov	r4, r0
 80039c4:	b083      	sub	sp, #12
 80039c6:	6840      	ldr	r0, [r0, #4]
 80039c8:	f000 f9a2 	bl	8003d10 <_ZN8tkrandom11Transmitter4InitEv>
 80039cc:	69a3      	ldr	r3, [r4, #24]
 80039ce:	2200      	movs	r2, #0
 80039d0:	2b03      	cmp	r3, #3
 80039d2:	f8ad 2006 	strh.w	r2, [sp, #6]
 80039d6:	d80b      	bhi.n	80039f0 <_ZN8tkrandom10RngHandler4InitEv+0x30>
 80039d8:	f10d 0506 	add.w	r5, sp, #6
 80039dc:	6820      	ldr	r0, [r4, #0]
 80039de:	4629      	mov	r1, r5
 80039e0:	f7ff ff60 	bl	80038a4 <_ZNK8tkrandom9Generator22GetUniformRandomNumberEPt>
 80039e4:	69a3      	ldr	r3, [r4, #24]
 80039e6:	b1a0      	cbz	r0, 8003a12 <_ZN8tkrandom10RngHandler4InitEv+0x52>
 80039e8:	3301      	adds	r3, #1
 80039ea:	2b03      	cmp	r3, #3
 80039ec:	61a3      	str	r3, [r4, #24]
 80039ee:	d9f5      	bls.n	80039dc <_ZN8tkrandom10RngHandler4InitEv+0x1c>
 80039f0:	69e3      	ldr	r3, [r4, #28]
 80039f2:	2b03      	cmp	r3, #3
 80039f4:	d80b      	bhi.n	8003a0e <_ZN8tkrandom10RngHandler4InitEv+0x4e>
 80039f6:	f10d 0506 	add.w	r5, sp, #6
 80039fa:	6820      	ldr	r0, [r4, #0]
 80039fc:	4629      	mov	r1, r5
 80039fe:	f7ff ff65 	bl	80038cc <_ZNK8tkrandom9Generator21GetNormalRandomNumberEPt>
 8003a02:	69e3      	ldr	r3, [r4, #28]
 8003a04:	b180      	cbz	r0, 8003a28 <_ZN8tkrandom10RngHandler4InitEv+0x68>
 8003a06:	3301      	adds	r3, #1
 8003a08:	2b03      	cmp	r3, #3
 8003a0a:	61e3      	str	r3, [r4, #28]
 8003a0c:	d9f5      	bls.n	80039fa <_ZN8tkrandom10RngHandler4InitEv+0x3a>
 8003a0e:	b003      	add	sp, #12
 8003a10:	bd30      	pop	{r4, r5, pc}
 8003a12:	f103 0210 	add.w	r2, r3, #16
 8003a16:	3301      	adds	r3, #1
 8003a18:	f8bd 1006 	ldrh.w	r1, [sp, #6]
 8003a1c:	f824 1012 	strh.w	r1, [r4, r2, lsl #1]
 8003a20:	2b03      	cmp	r3, #3
 8003a22:	61a3      	str	r3, [r4, #24]
 8003a24:	d9da      	bls.n	80039dc <_ZN8tkrandom10RngHandler4InitEv+0x1c>
 8003a26:	e7e3      	b.n	80039f0 <_ZN8tkrandom10RngHandler4InitEv+0x30>
 8003a28:	f103 0214 	add.w	r2, r3, #20
 8003a2c:	3301      	adds	r3, #1
 8003a2e:	f8bd 1006 	ldrh.w	r1, [sp, #6]
 8003a32:	f824 1012 	strh.w	r1, [r4, r2, lsl #1]
 8003a36:	2b03      	cmp	r3, #3
 8003a38:	61e3      	str	r3, [r4, #28]
 8003a3a:	d9de      	bls.n	80039fa <_ZN8tkrandom10RngHandler4InitEv+0x3a>
 8003a3c:	b003      	add	sp, #12
 8003a3e:	bd30      	pop	{r4, r5, pc}

08003a40 <_ZN8tkrandom10RngHandler14SetOutputsLedsEbb>:
 8003a40:	e92d 41f0 	stmdb	sp!, {r4, r5, r6, r7, r8, lr}
 8003a44:	4604      	mov	r4, r0
 8003a46:	b082      	sub	sp, #8
 8003a48:	4690      	mov	r8, r2
 8003a4a:	460f      	mov	r7, r1
 8003a4c:	2900      	cmp	r1, #0
 8003a4e:	f040 80d0 	bne.w	8003bf2 <_ZN8tkrandom10RngHandler14SetOutputsLedsEbb+0x1b2>
 8003a52:	460e      	mov	r6, r1
 8003a54:	f1b8 0f00 	cmp.w	r8, #0
 8003a58:	f040 808d 	bne.w	8003b76 <_ZN8tkrandom10RngHandler14SetOutputsLedsEbb+0x136>
 8003a5c:	2f00      	cmp	r7, #0
 8003a5e:	d07c      	beq.n	8003b5a <_ZN8tkrandom10RngHandler14SetOutputsLedsEbb+0x11a>
 8003a60:	68a3      	ldr	r3, [r4, #8]
 8003a62:	2b01      	cmp	r3, #1
 8003a64:	f000 80f8 	beq.w	8003c58 <_ZN8tkrandom10RngHandler14SetOutputsLedsEbb+0x218>
 8003a68:	69a3      	ldr	r3, [r4, #24]
 8003a6a:	3301      	adds	r3, #1
 8003a6c:	61a3      	str	r3, [r4, #24]
 8003a6e:	68e3      	ldr	r3, [r4, #12]
 8003a70:	2b01      	cmp	r3, #1
 8003a72:	f000 80f8 	beq.w	8003c66 <_ZN8tkrandom10RngHandler14SetOutputsLedsEbb+0x226>
 8003a76:	69a3      	ldr	r3, [r4, #24]
 8003a78:	3301      	adds	r3, #1
 8003a7a:	61a3      	str	r3, [r4, #24]
 8003a7c:	6923      	ldr	r3, [r4, #16]
 8003a7e:	2b01      	cmp	r3, #1
 8003a80:	f000 8113 	beq.w	8003caa <_ZN8tkrandom10RngHandler14SetOutputsLedsEbb+0x26a>
 8003a84:	69a3      	ldr	r3, [r4, #24]
 8003a86:	3301      	adds	r3, #1
 8003a88:	61a3      	str	r3, [r4, #24]
 8003a8a:	f1b8 0f00 	cmp.w	r8, #0
 8003a8e:	f000 8088 	beq.w	8003ba2 <_ZN8tkrandom10RngHandler14SetOutputsLedsEbb+0x162>
 8003a92:	6963      	ldr	r3, [r4, #20]
 8003a94:	2b01      	cmp	r3, #1
 8003a96:	f000 8081 	beq.w	8003b9c <_ZN8tkrandom10RngHandler14SetOutputsLedsEbb+0x15c>
 8003a9a:	69a3      	ldr	r3, [r4, #24]
 8003a9c:	3301      	adds	r3, #1
 8003a9e:	61a3      	str	r3, [r4, #24]
 8003aa0:	2f00      	cmp	r7, #0
 8003aa2:	d17e      	bne.n	8003ba2 <_ZN8tkrandom10RngHandler14SetOutputsLedsEbb+0x162>
 8003aa4:	6860      	ldr	r0, [r4, #4]
 8003aa6:	f103 020f 	add.w	r2, r3, #15
 8003aaa:	3b01      	subs	r3, #1
 8003aac:	f834 2012 	ldrh.w	r2, [r4, r2, lsl #1]
 8003ab0:	61a3      	str	r3, [r4, #24]
 8003ab2:	2107      	movs	r1, #7
 8003ab4:	f000 f970 	bl	8003d98 <_ZNK8tkrandom11Transmitter16SetLedBrightnessENS_3LedEt>
 8003ab8:	2800      	cmp	r0, #0
 8003aba:	bf18      	it	ne
 8003abc:	2601      	movne	r6, #1
 8003abe:	69a2      	ldr	r2, [r4, #24]
 8003ac0:	2300      	movs	r3, #0
 8003ac2:	2a03      	cmp	r2, #3
 8003ac4:	f8ad 3006 	strh.w	r3, [sp, #6]
 8003ac8:	f200 80e7 	bhi.w	8003c9a <_ZN8tkrandom10RngHandler14SetOutputsLedsEbb+0x25a>
 8003acc:	461f      	mov	r7, r3
 8003ace:	f10d 0506 	add.w	r5, sp, #6
 8003ad2:	6820      	ldr	r0, [r4, #0]
 8003ad4:	4629      	mov	r1, r5
 8003ad6:	f7ff fee5 	bl	80038a4 <_ZNK8tkrandom9Generator22GetUniformRandomNumberEPt>
 8003ada:	69a3      	ldr	r3, [r4, #24]
 8003adc:	b160      	cbz	r0, 8003af8 <_ZN8tkrandom10RngHandler14SetOutputsLedsEbb+0xb8>
 8003ade:	3301      	adds	r3, #1
 8003ae0:	2b03      	cmp	r3, #3
 8003ae2:	61a3      	str	r3, [r4, #24]
 8003ae4:	f200 80af 	bhi.w	8003c46 <_ZN8tkrandom10RngHandler14SetOutputsLedsEbb+0x206>
 8003ae8:	6820      	ldr	r0, [r4, #0]
 8003aea:	4629      	mov	r1, r5
 8003aec:	f7ff feda 	bl	80038a4 <_ZNK8tkrandom9Generator22GetUniformRandomNumberEPt>
 8003af0:	2702      	movs	r7, #2
 8003af2:	69a3      	ldr	r3, [r4, #24]
 8003af4:	2800      	cmp	r0, #0
 8003af6:	d1f2      	bne.n	8003ade <_ZN8tkrandom10RngHandler14SetOutputsLedsEbb+0x9e>
 8003af8:	f103 0210 	add.w	r2, r3, #16
 8003afc:	3301      	adds	r3, #1
 8003afe:	f8bd 1006 	ldrh.w	r1, [sp, #6]
 8003b02:	f824 1012 	strh.w	r1, [r4, r2, lsl #1]
 8003b06:	2b03      	cmp	r3, #3
 8003b08:	61a3      	str	r3, [r4, #24]
 8003b0a:	d9e2      	bls.n	8003ad2 <_ZN8tkrandom10RngHandler14SetOutputsLedsEbb+0x92>
 8003b0c:	69e3      	ldr	r3, [r4, #28]
 8003b0e:	2b03      	cmp	r3, #3
 8003b10:	d81c      	bhi.n	8003b4c <_ZN8tkrandom10RngHandler14SetOutputsLedsEbb+0x10c>
 8003b12:	6820      	ldr	r0, [r4, #0]
 8003b14:	4629      	mov	r1, r5
 8003b16:	f7ff fed9 	bl	80038cc <_ZNK8tkrandom9Generator21GetNormalRandomNumberEPt>
 8003b1a:	69e3      	ldr	r3, [r4, #28]
 8003b1c:	b160      	cbz	r0, 8003b38 <_ZN8tkrandom10RngHandler14SetOutputsLedsEbb+0xf8>
 8003b1e:	3301      	adds	r3, #1
 8003b20:	2b03      	cmp	r3, #3
 8003b22:	61e3      	str	r3, [r4, #28]
 8003b24:	f200 8093 	bhi.w	8003c4e <_ZN8tkrandom10RngHandler14SetOutputsLedsEbb+0x20e>
 8003b28:	6820      	ldr	r0, [r4, #0]
 8003b2a:	4629      	mov	r1, r5
 8003b2c:	f7ff fece 	bl	80038cc <_ZNK8tkrandom9Generator21GetNormalRandomNumberEPt>
 8003b30:	2702      	movs	r7, #2
 8003b32:	69e3      	ldr	r3, [r4, #28]
 8003b34:	2800      	cmp	r0, #0
 8003b36:	d1f2      	bne.n	8003b1e <_ZN8tkrandom10RngHandler14SetOutputsLedsEbb+0xde>
 8003b38:	f103 0214 	add.w	r2, r3, #20
 8003b3c:	3301      	adds	r3, #1
 8003b3e:	f8bd 1006 	ldrh.w	r1, [sp, #6]
 8003b42:	f824 1012 	strh.w	r1, [r4, r2, lsl #1]
 8003b46:	2b03      	cmp	r3, #3
 8003b48:	61e3      	str	r3, [r4, #28]
 8003b4a:	d9e2      	bls.n	8003b12 <_ZN8tkrandom10RngHandler14SetOutputsLedsEbb+0xd2>
 8003b4c:	2f00      	cmp	r7, #0
 8003b4e:	bf18      	it	ne
 8003b50:	2602      	movne	r6, #2
 8003b52:	4630      	mov	r0, r6
 8003b54:	b002      	add	sp, #8
 8003b56:	e8bd 81f0 	ldmia.w	sp!, {r4, r5, r6, r7, r8, pc}
 8003b5a:	f1b8 0f00 	cmp.w	r8, #0
 8003b5e:	d0ae      	beq.n	8003abe <_ZN8tkrandom10RngHandler14SetOutputsLedsEbb+0x7e>
 8003b60:	6963      	ldr	r3, [r4, #20]
 8003b62:	2b01      	cmp	r3, #1
 8003b64:	d199      	bne.n	8003a9a <_ZN8tkrandom10RngHandler14SetOutputsLedsEbb+0x5a>
 8003b66:	69e3      	ldr	r3, [r4, #28]
 8003b68:	6860      	ldr	r0, [r4, #4]
 8003b6a:	f103 0214 	add.w	r2, r3, #20
 8003b6e:	f834 2012 	ldrh.w	r2, [r4, r2, lsl #1]
 8003b72:	61e3      	str	r3, [r4, #28]
 8003b74:	e79d      	b.n	8003ab2 <_ZN8tkrandom10RngHandler14SetOutputsLedsEbb+0x72>
 8003b76:	6963      	ldr	r3, [r4, #20]
 8003b78:	6860      	ldr	r0, [r4, #4]
 8003b7a:	2b01      	cmp	r3, #1
 8003b7c:	f000 8085 	beq.w	8003c8a <_ZN8tkrandom10RngHandler14SetOutputsLedsEbb+0x24a>
 8003b80:	69a3      	ldr	r3, [r4, #24]
 8003b82:	f103 020f 	add.w	r2, r3, #15
 8003b86:	3b01      	subs	r3, #1
 8003b88:	f834 2012 	ldrh.w	r2, [r4, r2, lsl #1]
 8003b8c:	61a3      	str	r3, [r4, #24]
 8003b8e:	2103      	movs	r1, #3
 8003b90:	f000 f8e0 	bl	8003d54 <_ZNK8tkrandom11Transmitter10SetVoltageENS_6OutputEt>
 8003b94:	2800      	cmp	r0, #0
 8003b96:	bf18      	it	ne
 8003b98:	2601      	movne	r6, #1
 8003b9a:	e75f      	b.n	8003a5c <_ZN8tkrandom10RngHandler14SetOutputsLedsEbb+0x1c>
 8003b9c:	69e3      	ldr	r3, [r4, #28]
 8003b9e:	3301      	adds	r3, #1
 8003ba0:	61e3      	str	r3, [r4, #28]
 8003ba2:	2500      	movs	r5, #0
 8003ba4:	462f      	mov	r7, r5
 8003ba6:	2d01      	cmp	r5, #1
 8003ba8:	b2eb      	uxtb	r3, r5
 8003baa:	d06a      	beq.n	8003c82 <_ZN8tkrandom10RngHandler14SetOutputsLedsEbb+0x242>
 8003bac:	2b02      	cmp	r3, #2
 8003bae:	d16a      	bne.n	8003c86 <_ZN8tkrandom10RngHandler14SetOutputsLedsEbb+0x246>
 8003bb0:	6923      	ldr	r3, [r4, #16]
 8003bb2:	2b01      	cmp	r3, #1
 8003bb4:	d05d      	beq.n	8003c72 <_ZN8tkrandom10RngHandler14SetOutputsLedsEbb+0x232>
 8003bb6:	69a3      	ldr	r3, [r4, #24]
 8003bb8:	f103 020f 	add.w	r2, r3, #15
 8003bbc:	3b01      	subs	r3, #1
 8003bbe:	f834 2012 	ldrh.w	r2, [r4, r2, lsl #1]
 8003bc2:	61a3      	str	r3, [r4, #24]
 8003bc4:	1d29      	adds	r1, r5, #4
 8003bc6:	6860      	ldr	r0, [r4, #4]
 8003bc8:	f000 f8e6 	bl	8003d98 <_ZNK8tkrandom11Transmitter16SetLedBrightnessENS_3LedEt>
 8003bcc:	3501      	adds	r5, #1
 8003bce:	2800      	cmp	r0, #0
 8003bd0:	bf18      	it	ne
 8003bd2:	2701      	movne	r7, #1
 8003bd4:	2d03      	cmp	r5, #3
 8003bd6:	d1e6      	bne.n	8003ba6 <_ZN8tkrandom10RngHandler14SetOutputsLedsEbb+0x166>
 8003bd8:	2f00      	cmp	r7, #0
 8003bda:	bf18      	it	ne
 8003bdc:	463e      	movne	r6, r7
 8003bde:	f1b8 0f00 	cmp.w	r8, #0
 8003be2:	f43f af6c 	beq.w	8003abe <_ZN8tkrandom10RngHandler14SetOutputsLedsEbb+0x7e>
 8003be6:	6963      	ldr	r3, [r4, #20]
 8003be8:	6860      	ldr	r0, [r4, #4]
 8003bea:	2b01      	cmp	r3, #1
 8003bec:	d061      	beq.n	8003cb2 <_ZN8tkrandom10RngHandler14SetOutputsLedsEbb+0x272>
 8003bee:	69a3      	ldr	r3, [r4, #24]
 8003bf0:	e759      	b.n	8003aa6 <_ZN8tkrandom10RngHandler14SetOutputsLedsEbb+0x66>
 8003bf2:	2500      	movs	r5, #0
 8003bf4:	2d01      	cmp	r5, #1
 8003bf6:	462e      	mov	r6, r5
 8003bf8:	b2eb      	uxtb	r3, r5
 8003bfa:	d019      	beq.n	8003c30 <_ZN8tkrandom10RngHandler14SetOutputsLedsEbb+0x1f0>
 8003bfc:	2b02      	cmp	r3, #2
 8003bfe:	d136      	bne.n	8003c6e <_ZN8tkrandom10RngHandler14SetOutputsLedsEbb+0x22e>
 8003c00:	6923      	ldr	r3, [r4, #16]
 8003c02:	2b01      	cmp	r3, #1
 8003c04:	d017      	beq.n	8003c36 <_ZN8tkrandom10RngHandler14SetOutputsLedsEbb+0x1f6>
 8003c06:	69a3      	ldr	r3, [r4, #24]
 8003c08:	f103 020f 	add.w	r2, r3, #15
 8003c0c:	3b01      	subs	r3, #1
 8003c0e:	f834 2012 	ldrh.w	r2, [r4, r2, lsl #1]
 8003c12:	61a3      	str	r3, [r4, #24]
 8003c14:	4629      	mov	r1, r5
 8003c16:	6860      	ldr	r0, [r4, #4]
 8003c18:	f000 f89c 	bl	8003d54 <_ZNK8tkrandom11Transmitter10SetVoltageENS_6OutputEt>
 8003c1c:	3501      	adds	r5, #1
 8003c1e:	2800      	cmp	r0, #0
 8003c20:	bf18      	it	ne
 8003c22:	2601      	movne	r6, #1
 8003c24:	2d03      	cmp	r5, #3
 8003c26:	f43f af15 	beq.w	8003a54 <_ZN8tkrandom10RngHandler14SetOutputsLedsEbb+0x14>
 8003c2a:	2d01      	cmp	r5, #1
 8003c2c:	b2eb      	uxtb	r3, r5
 8003c2e:	d1e5      	bne.n	8003bfc <_ZN8tkrandom10RngHandler14SetOutputsLedsEbb+0x1bc>
 8003c30:	68e3      	ldr	r3, [r4, #12]
 8003c32:	2b01      	cmp	r3, #1
 8003c34:	d1e7      	bne.n	8003c06 <_ZN8tkrandom10RngHandler14SetOutputsLedsEbb+0x1c6>
 8003c36:	69e3      	ldr	r3, [r4, #28]
 8003c38:	f103 0213 	add.w	r2, r3, #19
 8003c3c:	3b01      	subs	r3, #1
 8003c3e:	f834 2012 	ldrh.w	r2, [r4, r2, lsl #1]
 8003c42:	61e3      	str	r3, [r4, #28]
 8003c44:	e7e6      	b.n	8003c14 <_ZN8tkrandom10RngHandler14SetOutputsLedsEbb+0x1d4>
 8003c46:	69e3      	ldr	r3, [r4, #28]
 8003c48:	2b03      	cmp	r3, #3
 8003c4a:	f67f af6d 	bls.w	8003b28 <_ZN8tkrandom10RngHandler14SetOutputsLedsEbb+0xe8>
 8003c4e:	2602      	movs	r6, #2
 8003c50:	4630      	mov	r0, r6
 8003c52:	b002      	add	sp, #8
 8003c54:	e8bd 81f0 	ldmia.w	sp!, {r4, r5, r6, r7, r8, pc}
 8003c58:	69e3      	ldr	r3, [r4, #28]
 8003c5a:	3301      	adds	r3, #1
 8003c5c:	61e3      	str	r3, [r4, #28]
 8003c5e:	68e3      	ldr	r3, [r4, #12]
 8003c60:	2b01      	cmp	r3, #1
 8003c62:	f47f af08 	bne.w	8003a76 <_ZN8tkrandom10RngHandler14SetOutputsLedsEbb+0x36>
 8003c66:	69e3      	ldr	r3, [r4, #28]
 8003c68:	3301      	adds	r3, #1
 8003c6a:	61e3      	str	r3, [r4, #28]
 8003c6c:	e706      	b.n	8003a7c <_ZN8tkrandom10RngHandler14SetOutputsLedsEbb+0x3c>
 8003c6e:	68a3      	ldr	r3, [r4, #8]
 8003c70:	e7c7      	b.n	8003c02 <_ZN8tkrandom10RngHandler14SetOutputsLedsEbb+0x1c2>
 8003c72:	69e3      	ldr	r3, [r4, #28]
 8003c74:	f103 0213 	add.w	r2, r3, #19
 8003c78:	3b01      	subs	r3, #1
 8003c7a:	f834 2012 	ldrh.w	r2, [r4, r2, lsl #1]
 8003c7e:	61e3      	str	r3, [r4, #28]
 8003c80:	e7a0      	b.n	8003bc4 <_ZN8tkrandom10RngHandler14SetOutputsLedsEbb+0x184>
 8003c82:	68e3      	ldr	r3, [r4, #12]
 8003c84:	e795      	b.n	8003bb2 <_ZN8tkrandom10RngHandler14SetOutputsLedsEbb+0x172>
 8003c86:	68a3      	ldr	r3, [r4, #8]
 8003c88:	e793      	b.n	8003bb2 <_ZN8tkrandom10RngHandler14SetOutputsLedsEbb+0x172>
 8003c8a:	69e3      	ldr	r3, [r4, #28]
 8003c8c:	f103 0213 	add.w	r2, r3, #19
 8003c90:	3b01      	subs	r3, #1
 8003c92:	f834 2012 	ldrh.w	r2, [r4, r2, lsl #1]
 8003c96:	61e3      	str	r3, [r4, #28]
 8003c98:	e779      	b.n	8003b8e <_ZN8tkrandom10RngHandler14SetOutputsLedsEbb+0x14e>
 8003c9a:	69e2      	ldr	r2, [r4, #28]
 8003c9c:	2a03      	cmp	r2, #3
 8003c9e:	f63f af58 	bhi.w	8003b52 <_ZN8tkrandom10RngHandler14SetOutputsLedsEbb+0x112>
 8003ca2:	461f      	mov	r7, r3
 8003ca4:	f10d 0506 	add.w	r5, sp, #6
 8003ca8:	e733      	b.n	8003b12 <_ZN8tkrandom10RngHandler14SetOutputsLedsEbb+0xd2>
 8003caa:	69e3      	ldr	r3, [r4, #28]
 8003cac:	3301      	adds	r3, #1
 8003cae:	61e3      	str	r3, [r4, #28]
 8003cb0:	e6eb      	b.n	8003a8a <_ZN8tkrandom10RngHandler14SetOutputsLedsEbb+0x4a>
 8003cb2:	69e3      	ldr	r3, [r4, #28]
 8003cb4:	3b01      	subs	r3, #1
 8003cb6:	e758      	b.n	8003b6a <_ZN8tkrandom10RngHandler14SetOutputsLedsEbb+0x12a>

08003cb8 <_ZN8tkrandom10RngHandler15SetDistributionENS_6OutputENS_12DistributionE>:
 8003cb8:	2903      	cmp	r1, #3
 8003cba:	d804      	bhi.n	8003cc6 <_ZN8tkrandom10RngHandler15SetDistributionENS_6OutputENS_12DistributionE+0xe>
 8003cbc:	e8df f001 	tbb	[pc, r1]
 8003cc0:	02080604 	.word	0x02080604
 8003cc4:	6142      	str	r2, [r0, #20]
 8003cc6:	4770      	bx	lr
 8003cc8:	6082      	str	r2, [r0, #8]
 8003cca:	4770      	bx	lr
 8003ccc:	60c2      	str	r2, [r0, #12]
 8003cce:	4770      	bx	lr
 8003cd0:	6102      	str	r2, [r0, #16]
 8003cd2:	4770      	bx	lr

08003cd4 <_ZN8tkrandom10RngHandler11ProcessTickEv>:
 8003cd4:	6800      	ldr	r0, [r0, #0]
 8003cd6:	f7ff be17 	b.w	8003908 <_ZN8tkrandom9Generator8ResetRngEv>
 8003cda:	bf00      	nop

08003cdc <_ZN8tkrandom11TransmitterC1EP19__SPI_HandleTypeDefP12GPIO_TypeDeftS4_t>:
 8003cdc:	b5f8      	push	{r3, r4, r5, r6, r7, lr}
 8003cde:	4604      	mov	r4, r0
 8003ce0:	f44f 757a 	mov.w	r5, #1000	; 0x3e8
 8003ce4:	9e06      	ldr	r6, [sp, #24]
 8003ce6:	60e2      	str	r2, [r4, #12]
 8003ce8:	4610      	mov	r0, r2
 8003cea:	6065      	str	r5, [r4, #4]
 8003cec:	2730      	movs	r7, #48	; 0x30
 8003cee:	f8bd 501c 	ldrh.w	r5, [sp, #28]
 8003cf2:	6021      	str	r1, [r4, #0]
 8003cf4:	f646 326c 	movw	r2, #27500	; 0x6b6c
 8003cf8:	8322      	strh	r2, [r4, #24]
 8003cfa:	82a3      	strh	r3, [r4, #20]
 8003cfc:	7227      	strb	r7, [r4, #8]
 8003cfe:	4619      	mov	r1, r3
 8003d00:	6126      	str	r6, [r4, #16]
 8003d02:	82e5      	strh	r5, [r4, #22]
 8003d04:	2201      	movs	r2, #1
 8003d06:	f7fe f9ad 	bl	8002064 <HAL_GPIO_WritePin>
 8003d0a:	4620      	mov	r0, r4
 8003d0c:	bdf8      	pop	{r3, r4, r5, r6, r7, pc}
 8003d0e:	bf00      	nop

08003d10 <_ZN8tkrandom11Transmitter4InitEv>:
 8003d10:	b510      	push	{r4, lr}
 8003d12:	8ac1      	ldrh	r1, [r0, #22]
 8003d14:	b082      	sub	sp, #8
 8003d16:	4604      	mov	r4, r0
 8003d18:	2200      	movs	r2, #0
 8003d1a:	6900      	ldr	r0, [r0, #16]
 8003d1c:	f7fe f9a2 	bl	8002064 <HAL_GPIO_WritePin>
 8003d20:	2300      	movs	r3, #0
 8003d22:	f88d 3007 	strb.w	r3, [sp, #7]
 8003d26:	f89d 3007 	ldrb.w	r3, [sp, #7]
 8003d2a:	2b31      	cmp	r3, #49	; 0x31
 8003d2c:	d809      	bhi.n	8003d42 <_ZN8tkrandom11Transmitter4InitEv+0x32>
 8003d2e:	f89d 3007 	ldrb.w	r3, [sp, #7]
 8003d32:	3301      	adds	r3, #1
 8003d34:	b2db      	uxtb	r3, r3
 8003d36:	f88d 3007 	strb.w	r3, [sp, #7]
 8003d3a:	f89d 3007 	ldrb.w	r3, [sp, #7]
 8003d3e:	2b31      	cmp	r3, #49	; 0x31
 8003d40:	d9f5      	bls.n	8003d2e <_ZN8tkrandom11Transmitter4InitEv+0x1e>
 8003d42:	8ae1      	ldrh	r1, [r4, #22]
 8003d44:	6920      	ldr	r0, [r4, #16]
 8003d46:	2201      	movs	r2, #1
 8003d48:	b002      	add	sp, #8
 8003d4a:	e8bd 4010 	ldmia.w	sp!, {r4, lr}
 8003d4e:	f7fe b989 	b.w	8002064 <HAL_GPIO_WritePin>
 8003d52:	bf00      	nop

08003d54 <_ZNK8tkrandom11Transmitter10SetVoltageENS_6OutputEt>:
 8003d54:	b530      	push	{r4, r5, lr}
 8003d56:	4604      	mov	r4, r0
 8003d58:	b083      	sub	sp, #12
 8003d5a:	7a05      	ldrb	r5, [r0, #8]
 8003d5c:	f88d 2006 	strb.w	r2, [sp, #6]
 8003d60:	186b      	adds	r3, r5, r1
 8003d62:	68c0      	ldr	r0, [r0, #12]
 8003d64:	8aa1      	ldrh	r1, [r4, #20]
 8003d66:	f88d 3004 	strb.w	r3, [sp, #4]
 8003d6a:	1215      	asrs	r5, r2, #8
 8003d6c:	2200      	movs	r2, #0
 8003d6e:	f88d 5005 	strb.w	r5, [sp, #5]
 8003d72:	f7fe f977 	bl	8002064 <HAL_GPIO_WritePin>
 8003d76:	e9d4 0300 	ldrd	r0, r3, [r4]
 8003d7a:	a901      	add	r1, sp, #4
 8003d7c:	2203      	movs	r2, #3
 8003d7e:	f7ff f965 	bl	800304c <HAL_SPI_Transmit>
 8003d82:	8aa1      	ldrh	r1, [r4, #20]
 8003d84:	4605      	mov	r5, r0
 8003d86:	2201      	movs	r2, #1
 8003d88:	68e0      	ldr	r0, [r4, #12]
 8003d8a:	f7fe f96b 	bl	8002064 <HAL_GPIO_WritePin>
 8003d8e:	1e28      	subs	r0, r5, #0
 8003d90:	bf18      	it	ne
 8003d92:	2001      	movne	r0, #1
 8003d94:	b003      	add	sp, #12
 8003d96:	bd30      	pop	{r4, r5, pc}

08003d98 <_ZNK8tkrandom11Transmitter16SetLedBrightnessENS_3LedEt>:
 8003d98:	e92d 43f0 	stmdb	sp!, {r4, r5, r6, r7, r8, r9, lr}
 8003d9c:	8b05      	ldrh	r5, [r0, #24]
 8003d9e:	4604      	mov	r4, r0
 8003da0:	43e8      	mvns	r0, r5
 8003da2:	b083      	sub	sp, #12
 8003da4:	b280      	uxth	r0, r0
 8003da6:	4617      	mov	r7, r2
 8003da8:	460e      	mov	r6, r1
 8003daa:	f7fc fc87 	bl	80006bc <__aeabi_ui2d>
 8003dae:	4680      	mov	r8, r0
 8003db0:	4638      	mov	r0, r7
 8003db2:	4689      	mov	r9, r1
 8003db4:	f7fc fc82 	bl	80006bc <__aeabi_ui2d>
 8003db8:	4602      	mov	r2, r0
 8003dba:	460b      	mov	r3, r1
 8003dbc:	4640      	mov	r0, r8
 8003dbe:	4649      	mov	r1, r9
 8003dc0:	f7fc fa10 	bl	80001e4 <__aeabi_dmul>
 8003dc4:	a314      	add	r3, pc, #80	; (adr r3, 8003e18 <_ZNK8tkrandom11Transmitter16SetLedBrightnessENS_3LedEt+0x80>)
 8003dc6:	e9d3 2300 	ldrd	r2, r3, [r3]
 8003dca:	f7fc fa0b 	bl	80001e4 <__aeabi_dmul>
 8003dce:	f7fc fcef 	bl	80007b0 <__aeabi_d2uiz>
 8003dd2:	7a22      	ldrb	r2, [r4, #8]
 8003dd4:	8aa1      	ldrh	r1, [r4, #20]
 8003dd6:	4603      	mov	r3, r0
 8003dd8:	441d      	add	r5, r3
 8003dda:	68e0      	ldr	r0, [r4, #12]
 8003ddc:	f88d 5006 	strb.w	r5, [sp, #6]
 8003de0:	1993      	adds	r3, r2, r6
 8003de2:	f3c5 2707 	ubfx	r7, r5, #8, #8
 8003de6:	2200      	movs	r2, #0
 8003de8:	f88d 3004 	strb.w	r3, [sp, #4]
 8003dec:	f88d 7005 	strb.w	r7, [sp, #5]
 8003df0:	f7fe f938 	bl	8002064 <HAL_GPIO_WritePin>
 8003df4:	e9d4 0300 	ldrd	r0, r3, [r4]
 8003df8:	a901      	add	r1, sp, #4
 8003dfa:	2203      	movs	r2, #3
 8003dfc:	f7ff f926 	bl	800304c <HAL_SPI_Transmit>
 8003e00:	8aa1      	ldrh	r1, [r4, #20]
 8003e02:	4605      	mov	r5, r0
 8003e04:	2201      	movs	r2, #1
 8003e06:	68e0      	ldr	r0, [r4, #12]
 8003e08:	f7fe f92c 	bl	8002064 <HAL_GPIO_WritePin>
 8003e0c:	1e28      	subs	r0, r5, #0
 8003e0e:	bf18      	it	ne
 8003e10:	2001      	movne	r0, #1
 8003e12:	b003      	add	sp, #12
 8003e14:	e8bd 83f0 	ldmia.w	sp!, {r4, r5, r6, r7, r8, r9, pc}
 8003e18:	00100010 	.word	0x00100010
 8003e1c:	3ef00010 	.word	0x3ef00010

08003e20 <_ZdlPvj>:
 8003e20:	f000 bc7e 	b.w	8004720 <_ZdlPv>

08003e24 <__cxa_end_cleanup>:
 8003e24:	b41e      	push	{r1, r2, r3, r4}
 8003e26:	f000 f89c 	bl	8003f62 <__gnu_end_cleanup>
 8003e2a:	bc1e      	pop	{r1, r2, r3, r4}
 8003e2c:	f7fd fa4a 	bl	80012c4 <_Unwind_Resume>

08003e30 <_ZN10__cxxabiv1L24__is_gxx_exception_classEPc>:
 8003e30:	7803      	ldrb	r3, [r0, #0]
 8003e32:	2b47      	cmp	r3, #71	; 0x47
 8003e34:	d117      	bne.n	8003e66 <_ZN10__cxxabiv1L24__is_gxx_exception_classEPc+0x36>
 8003e36:	7843      	ldrb	r3, [r0, #1]
 8003e38:	2b4e      	cmp	r3, #78	; 0x4e
 8003e3a:	d114      	bne.n	8003e66 <_ZN10__cxxabiv1L24__is_gxx_exception_classEPc+0x36>
 8003e3c:	7883      	ldrb	r3, [r0, #2]
 8003e3e:	2b55      	cmp	r3, #85	; 0x55
 8003e40:	d111      	bne.n	8003e66 <_ZN10__cxxabiv1L24__is_gxx_exception_classEPc+0x36>
 8003e42:	78c3      	ldrb	r3, [r0, #3]
 8003e44:	2b43      	cmp	r3, #67	; 0x43
 8003e46:	d10e      	bne.n	8003e66 <_ZN10__cxxabiv1L24__is_gxx_exception_classEPc+0x36>
 8003e48:	7903      	ldrb	r3, [r0, #4]
 8003e4a:	2b43      	cmp	r3, #67	; 0x43
 8003e4c:	d10b      	bne.n	8003e66 <_ZN10__cxxabiv1L24__is_gxx_exception_classEPc+0x36>
 8003e4e:	7943      	ldrb	r3, [r0, #5]
 8003e50:	2b2b      	cmp	r3, #43	; 0x2b
 8003e52:	d108      	bne.n	8003e66 <_ZN10__cxxabiv1L24__is_gxx_exception_classEPc+0x36>
 8003e54:	7983      	ldrb	r3, [r0, #6]
 8003e56:	2b2b      	cmp	r3, #43	; 0x2b
 8003e58:	d105      	bne.n	8003e66 <_ZN10__cxxabiv1L24__is_gxx_exception_classEPc+0x36>
 8003e5a:	79c0      	ldrb	r0, [r0, #7]
 8003e5c:	2801      	cmp	r0, #1
 8003e5e:	bf8c      	ite	hi
 8003e60:	2000      	movhi	r0, #0
 8003e62:	2001      	movls	r0, #1
 8003e64:	4770      	bx	lr
 8003e66:	2000      	movs	r0, #0
 8003e68:	4770      	bx	lr
	...

08003e6c <__cxa_type_match>:
 8003e6c:	e92d 41f3 	stmdb	sp!, {r0, r1, r4, r5, r6, r7, r8, lr}
 8003e70:	461d      	mov	r5, r3
 8003e72:	7803      	ldrb	r3, [r0, #0]
 8003e74:	2b47      	cmp	r3, #71	; 0x47
 8003e76:	460e      	mov	r6, r1
 8003e78:	4602      	mov	r2, r0
 8003e7a:	79c1      	ldrb	r1, [r0, #7]
 8003e7c:	d113      	bne.n	8003ea6 <__cxa_type_match+0x3a>
 8003e7e:	7843      	ldrb	r3, [r0, #1]
 8003e80:	2b4e      	cmp	r3, #78	; 0x4e
 8003e82:	d110      	bne.n	8003ea6 <__cxa_type_match+0x3a>
 8003e84:	7883      	ldrb	r3, [r0, #2]
 8003e86:	2b55      	cmp	r3, #85	; 0x55
 8003e88:	d10d      	bne.n	8003ea6 <__cxa_type_match+0x3a>
 8003e8a:	78c3      	ldrb	r3, [r0, #3]
 8003e8c:	2b43      	cmp	r3, #67	; 0x43
 8003e8e:	d10a      	bne.n	8003ea6 <__cxa_type_match+0x3a>
 8003e90:	7903      	ldrb	r3, [r0, #4]
 8003e92:	2b46      	cmp	r3, #70	; 0x46
 8003e94:	d107      	bne.n	8003ea6 <__cxa_type_match+0x3a>
 8003e96:	7943      	ldrb	r3, [r0, #5]
 8003e98:	2b4f      	cmp	r3, #79	; 0x4f
 8003e9a:	d104      	bne.n	8003ea6 <__cxa_type_match+0x3a>
 8003e9c:	7983      	ldrb	r3, [r0, #6]
 8003e9e:	2b52      	cmp	r3, #82	; 0x52
 8003ea0:	d101      	bne.n	8003ea6 <__cxa_type_match+0x3a>
 8003ea2:	2900      	cmp	r1, #0
 8003ea4:	d031      	beq.n	8003f0a <__cxa_type_match+0x9e>
 8003ea6:	4610      	mov	r0, r2
 8003ea8:	f7ff ffc2 	bl	8003e30 <_ZN10__cxxabiv1L24__is_gxx_exception_classEPc>
 8003eac:	f080 0001 	eor.w	r0, r0, #1
 8003eb0:	b2c0      	uxtb	r0, r0
 8003eb2:	2300      	movs	r3, #0
 8003eb4:	2400      	movs	r4, #0
 8003eb6:	9401      	str	r4, [sp, #4]
 8003eb8:	bb53      	cbnz	r3, 8003f10 <__cxa_type_match+0xa4>
 8003eba:	bb58      	cbnz	r0, 8003f14 <__cxa_type_match+0xa8>
 8003ebc:	2901      	cmp	r1, #1
 8003ebe:	bf0a      	itet	eq
 8003ec0:	f852 3c20 	ldreq.w	r3, [r2, #-32]
 8003ec4:	f1a2 0320 	subne.w	r3, r2, #32
 8003ec8:	3b78      	subeq	r3, #120	; 0x78
 8003eca:	2901      	cmp	r1, #1
 8003ecc:	bf08      	it	eq
 8003ece:	f852 2c20 	ldreq.w	r2, [r2, #-32]
 8003ed2:	681c      	ldr	r4, [r3, #0]
 8003ed4:	bf18      	it	ne
 8003ed6:	3258      	addne	r2, #88	; 0x58
 8003ed8:	9201      	str	r2, [sp, #4]
 8003eda:	6823      	ldr	r3, [r4, #0]
 8003edc:	4620      	mov	r0, r4
 8003ede:	689b      	ldr	r3, [r3, #8]
 8003ee0:	4798      	blx	r3
 8003ee2:	b1c8      	cbz	r0, 8003f18 <__cxa_type_match+0xac>
 8003ee4:	9b01      	ldr	r3, [sp, #4]
 8003ee6:	681b      	ldr	r3, [r3, #0]
 8003ee8:	9301      	str	r3, [sp, #4]
 8003eea:	2702      	movs	r7, #2
 8003eec:	6833      	ldr	r3, [r6, #0]
 8003eee:	aa01      	add	r2, sp, #4
 8003ef0:	f8d3 8010 	ldr.w	r8, [r3, #16]
 8003ef4:	4621      	mov	r1, r4
 8003ef6:	2301      	movs	r3, #1
 8003ef8:	4630      	mov	r0, r6
 8003efa:	47c0      	blx	r8
 8003efc:	b170      	cbz	r0, 8003f1c <__cxa_type_match+0xb0>
 8003efe:	9b01      	ldr	r3, [sp, #4]
 8003f00:	602b      	str	r3, [r5, #0]
 8003f02:	4638      	mov	r0, r7
 8003f04:	b002      	add	sp, #8
 8003f06:	e8bd 81f0 	ldmia.w	sp!, {r4, r5, r6, r7, r8, pc}
 8003f0a:	2301      	movs	r3, #1
 8003f0c:	4608      	mov	r0, r1
 8003f0e:	e7d1      	b.n	8003eb4 <__cxa_type_match+0x48>
 8003f10:	4c03      	ldr	r4, [pc, #12]	; (8003f20 <__cxa_type_match+0xb4>)
 8003f12:	e7e2      	b.n	8003eda <__cxa_type_match+0x6e>
 8003f14:	4c03      	ldr	r4, [pc, #12]	; (8003f24 <__cxa_type_match+0xb8>)
 8003f16:	e7e0      	b.n	8003eda <__cxa_type_match+0x6e>
 8003f18:	2701      	movs	r7, #1
 8003f1a:	e7e7      	b.n	8003eec <__cxa_type_match+0x80>
 8003f1c:	4607      	mov	r7, r0
 8003f1e:	e7f0      	b.n	8003f02 <__cxa_type_match+0x96>
 8003f20:	08004b6c 	.word	0x08004b6c
 8003f24:	08004b74 	.word	0x08004b74

08003f28 <__cxa_begin_cleanup>:
 8003f28:	b510      	push	{r4, lr}
 8003f2a:	4604      	mov	r4, r0
 8003f2c:	f000 f832 	bl	8003f94 <__cxa_get_globals>
 8003f30:	4602      	mov	r2, r0
 8003f32:	4620      	mov	r0, r4
 8003f34:	f1a4 0120 	sub.w	r1, r4, #32
 8003f38:	f7ff ff7a 	bl	8003e30 <_ZN10__cxxabiv1L24__is_gxx_exception_classEPc>
 8003f3c:	b160      	cbz	r0, 8003f58 <__cxa_begin_cleanup+0x30>
 8003f3e:	f854 3c04 	ldr.w	r3, [r4, #-4]
 8003f42:	3301      	adds	r3, #1
 8003f44:	2b01      	cmp	r3, #1
 8003f46:	f844 3c04 	str.w	r3, [r4, #-4]
 8003f4a:	d103      	bne.n	8003f54 <__cxa_begin_cleanup+0x2c>
 8003f4c:	6893      	ldr	r3, [r2, #8]
 8003f4e:	f844 3c08 	str.w	r3, [r4, #-8]
 8003f52:	6091      	str	r1, [r2, #8]
 8003f54:	2001      	movs	r0, #1
 8003f56:	bd10      	pop	{r4, pc}
 8003f58:	6893      	ldr	r3, [r2, #8]
 8003f5a:	2b00      	cmp	r3, #0
 8003f5c:	d0f9      	beq.n	8003f52 <__cxa_begin_cleanup+0x2a>
 8003f5e:	f000 faab 	bl	80044b8 <_ZSt9terminatev>

08003f62 <__gnu_end_cleanup>:
 8003f62:	b510      	push	{r4, lr}
 8003f64:	f000 f816 	bl	8003f94 <__cxa_get_globals>
 8003f68:	6882      	ldr	r2, [r0, #8]
 8003f6a:	4601      	mov	r1, r0
 8003f6c:	b90a      	cbnz	r2, 8003f72 <__gnu_end_cleanup+0x10>
 8003f6e:	f000 faa3 	bl	80044b8 <_ZSt9terminatev>
 8003f72:	f102 0420 	add.w	r4, r2, #32
 8003f76:	4620      	mov	r0, r4
 8003f78:	f7ff ff5a 	bl	8003e30 <_ZN10__cxxabiv1L24__is_gxx_exception_classEPc>
 8003f7c:	b140      	cbz	r0, 8003f90 <__gnu_end_cleanup+0x2e>
 8003f7e:	69d3      	ldr	r3, [r2, #28]
 8003f80:	3b01      	subs	r3, #1
 8003f82:	61d3      	str	r3, [r2, #28]
 8003f84:	b913      	cbnz	r3, 8003f8c <__gnu_end_cleanup+0x2a>
 8003f86:	6990      	ldr	r0, [r2, #24]
 8003f88:	6088      	str	r0, [r1, #8]
 8003f8a:	6193      	str	r3, [r2, #24]
 8003f8c:	4620      	mov	r0, r4
 8003f8e:	bd10      	pop	{r4, pc}
 8003f90:	6088      	str	r0, [r1, #8]
 8003f92:	e7fb      	b.n	8003f8c <__gnu_end_cleanup+0x2a>

08003f94 <__cxa_get_globals>:
 8003f94:	4800      	ldr	r0, [pc, #0]	; (8003f98 <__cxa_get_globals+0x4>)
 8003f96:	4770      	bx	lr
 8003f98:	2000015c 	.word	0x2000015c

08003f9c <_ZL12read_uleb128PKhPm>:
 8003f9c:	b530      	push	{r4, r5, lr}
 8003f9e:	2300      	movs	r3, #0
 8003fa0:	461a      	mov	r2, r3
 8003fa2:	f810 5b01 	ldrb.w	r5, [r0], #1
 8003fa6:	f005 047f 	and.w	r4, r5, #127	; 0x7f
 8003faa:	4094      	lsls	r4, r2
 8003fac:	4323      	orrs	r3, r4
 8003fae:	062c      	lsls	r4, r5, #24
 8003fb0:	f102 0207 	add.w	r2, r2, #7
 8003fb4:	d4f5      	bmi.n	8003fa2 <_ZL12read_uleb128PKhPm+0x6>
 8003fb6:	600b      	str	r3, [r1, #0]
 8003fb8:	bd30      	pop	{r4, r5, pc}

08003fba <_ZL12read_sleb128PKhPl>:
 8003fba:	b530      	push	{r4, r5, lr}
 8003fbc:	2300      	movs	r3, #0
 8003fbe:	461a      	mov	r2, r3
 8003fc0:	f810 4b01 	ldrb.w	r4, [r0], #1
 8003fc4:	f004 057f 	and.w	r5, r4, #127	; 0x7f
 8003fc8:	4095      	lsls	r5, r2
 8003fca:	432b      	orrs	r3, r5
 8003fcc:	0625      	lsls	r5, r4, #24
 8003fce:	f102 0207 	add.w	r2, r2, #7
 8003fd2:	d4f5      	bmi.n	8003fc0 <_ZL12read_sleb128PKhPl+0x6>
 8003fd4:	2a1f      	cmp	r2, #31
 8003fd6:	d806      	bhi.n	8003fe6 <_ZL12read_sleb128PKhPl+0x2c>
 8003fd8:	0664      	lsls	r4, r4, #25
 8003fda:	bf42      	ittt	mi
 8003fdc:	f04f 34ff 	movmi.w	r4, #4294967295	; 0xffffffff
 8003fe0:	fa04 f202 	lslmi.w	r2, r4, r2
 8003fe4:	4313      	orrmi	r3, r2
 8003fe6:	600b      	str	r3, [r1, #0]
 8003fe8:	bd30      	pop	{r4, r5, pc}

08003fea <_ZL28read_encoded_value_with_basehjPKhPj>:
 8003fea:	2850      	cmp	r0, #80	; 0x50
 8003fec:	e92d 41f3 	stmdb	sp!, {r0, r1, r4, r5, r6, r7, r8, lr}
 8003ff0:	4606      	mov	r6, r0
 8003ff2:	4688      	mov	r8, r1
 8003ff4:	4615      	mov	r5, r2
 8003ff6:	461f      	mov	r7, r3
 8003ff8:	d108      	bne.n	800400c <_ZL28read_encoded_value_with_basehjPKhPj+0x22>
 8003ffa:	3203      	adds	r2, #3
 8003ffc:	f022 0003 	bic.w	r0, r2, #3
 8004000:	f850 4b04 	ldr.w	r4, [r0], #4
 8004004:	603c      	str	r4, [r7, #0]
 8004006:	b002      	add	sp, #8
 8004008:	e8bd 81f0 	ldmia.w	sp!, {r4, r5, r6, r7, r8, pc}
 800400c:	f000 030f 	and.w	r3, r0, #15
 8004010:	2b0c      	cmp	r3, #12
 8004012:	d82e      	bhi.n	8004072 <_ZL28read_encoded_value_with_basehjPKhPj+0x88>
 8004014:	e8df f003 	tbb	[pc, r3]
 8004018:	251d0725 	.word	0x251d0725
 800401c:	2d2d2d29 	.word	0x2d2d2d29
 8004020:	2521182d 	.word	0x2521182d
 8004024:	29          	.byte	0x29
 8004025:	00          	.byte	0x00
 8004026:	a901      	add	r1, sp, #4
 8004028:	4628      	mov	r0, r5
 800402a:	f7ff ffb7 	bl	8003f9c <_ZL12read_uleb128PKhPm>
 800402e:	9c01      	ldr	r4, [sp, #4]
 8004030:	2c00      	cmp	r4, #0
 8004032:	d0e7      	beq.n	8004004 <_ZL28read_encoded_value_with_basehjPKhPj+0x1a>
 8004034:	f006 0370 	and.w	r3, r6, #112	; 0x70
 8004038:	2b10      	cmp	r3, #16
 800403a:	bf08      	it	eq
 800403c:	46a8      	moveq	r8, r5
 800403e:	4444      	add	r4, r8
 8004040:	0633      	lsls	r3, r6, #24
 8004042:	bf48      	it	mi
 8004044:	6824      	ldrmi	r4, [r4, #0]
 8004046:	e7dd      	b.n	8004004 <_ZL28read_encoded_value_with_basehjPKhPj+0x1a>
 8004048:	a901      	add	r1, sp, #4
 800404a:	4628      	mov	r0, r5
 800404c:	f7ff ffb5 	bl	8003fba <_ZL12read_sleb128PKhPl>
 8004050:	e7ed      	b.n	800402e <_ZL28read_encoded_value_with_basehjPKhPj+0x44>
 8004052:	4628      	mov	r0, r5
 8004054:	f830 4b02 	ldrh.w	r4, [r0], #2
 8004058:	e7ea      	b.n	8004030 <_ZL28read_encoded_value_with_basehjPKhPj+0x46>
 800405a:	4628      	mov	r0, r5
 800405c:	f930 4b02 	ldrsh.w	r4, [r0], #2
 8004060:	e7e6      	b.n	8004030 <_ZL28read_encoded_value_with_basehjPKhPj+0x46>
 8004062:	4628      	mov	r0, r5
 8004064:	f850 4b04 	ldr.w	r4, [r0], #4
 8004068:	e7e2      	b.n	8004030 <_ZL28read_encoded_value_with_basehjPKhPj+0x46>
 800406a:	4628      	mov	r0, r5
 800406c:	f850 4b08 	ldr.w	r4, [r0], #8
 8004070:	e7de      	b.n	8004030 <_ZL28read_encoded_value_with_basehjPKhPj+0x46>
 8004072:	f000 fbe5 	bl	8004840 <abort>

08004076 <_ZL21base_of_encoded_valuehP15_Unwind_Context>:
 8004076:	b508      	push	{r3, lr}
 8004078:	4603      	mov	r3, r0
 800407a:	2bff      	cmp	r3, #255	; 0xff
 800407c:	4608      	mov	r0, r1
 800407e:	d010      	beq.n	80040a2 <_ZL21base_of_encoded_valuehP15_Unwind_Context+0x2c>
 8004080:	f003 0270 	and.w	r2, r3, #112	; 0x70
 8004084:	2a30      	cmp	r2, #48	; 0x30
 8004086:	d012      	beq.n	80040ae <_ZL21base_of_encoded_valuehP15_Unwind_Context+0x38>
 8004088:	d807      	bhi.n	800409a <_ZL21base_of_encoded_valuehP15_Unwind_Context+0x24>
 800408a:	2a20      	cmp	r2, #32
 800408c:	d00b      	beq.n	80040a6 <_ZL21base_of_encoded_valuehP15_Unwind_Context+0x30>
 800408e:	d802      	bhi.n	8004096 <_ZL21base_of_encoded_valuehP15_Unwind_Context+0x20>
 8004090:	f013 0f60 	tst.w	r3, #96	; 0x60
 8004094:	d005      	beq.n	80040a2 <_ZL21base_of_encoded_valuehP15_Unwind_Context+0x2c>
 8004096:	f000 fbd3 	bl	8004840 <abort>
 800409a:	2a40      	cmp	r2, #64	; 0x40
 800409c:	d00b      	beq.n	80040b6 <_ZL21base_of_encoded_valuehP15_Unwind_Context+0x40>
 800409e:	2a50      	cmp	r2, #80	; 0x50
 80040a0:	d1f9      	bne.n	8004096 <_ZL21base_of_encoded_valuehP15_Unwind_Context+0x20>
 80040a2:	2000      	movs	r0, #0
 80040a4:	bd08      	pop	{r3, pc}
 80040a6:	e8bd 4008 	ldmia.w	sp!, {r3, lr}
 80040aa:	f000 bd22 	b.w	8004af2 <_Unwind_GetTextRelBase>
 80040ae:	e8bd 4008 	ldmia.w	sp!, {r3, lr}
 80040b2:	f000 bd1b 	b.w	8004aec <_Unwind_GetDataRelBase>
 80040b6:	e8bd 4008 	ldmia.w	sp!, {r3, lr}
 80040ba:	f7fd badb 	b.w	8001674 <_Unwind_GetRegionStart>

080040be <_ZL18read_encoded_valueP15_Unwind_ContexthPKhPj>:
 80040be:	b513      	push	{r0, r1, r4, lr}
 80040c0:	460c      	mov	r4, r1
 80040c2:	4601      	mov	r1, r0
 80040c4:	4620      	mov	r0, r4
 80040c6:	e9cd 3200 	strd	r3, r2, [sp]
 80040ca:	f7ff ffd4 	bl	8004076 <_ZL21base_of_encoded_valuehP15_Unwind_Context>
 80040ce:	e9dd 3200 	ldrd	r3, r2, [sp]
 80040d2:	4601      	mov	r1, r0
 80040d4:	4620      	mov	r0, r4
 80040d6:	b002      	add	sp, #8
 80040d8:	e8bd 4010 	ldmia.w	sp!, {r4, lr}
 80040dc:	f7ff bf85 	b.w	8003fea <_ZL28read_encoded_value_with_basehjPKhPj>

080040e0 <_ZL17parse_lsda_headerP15_Unwind_ContextPKhP16lsda_header_info>:
 80040e0:	b573      	push	{r0, r1, r4, r5, r6, lr}
 80040e2:	460c      	mov	r4, r1
 80040e4:	4615      	mov	r5, r2
 80040e6:	4606      	mov	r6, r0
 80040e8:	b328      	cbz	r0, 8004136 <_ZL17parse_lsda_headerP15_Unwind_ContextPKhP16lsda_header_info+0x56>
 80040ea:	f7fd fac3 	bl	8001674 <_Unwind_GetRegionStart>
 80040ee:	4603      	mov	r3, r0
 80040f0:	4620      	mov	r0, r4
 80040f2:	602b      	str	r3, [r5, #0]
 80040f4:	f810 1b01 	ldrb.w	r1, [r0], #1
 80040f8:	29ff      	cmp	r1, #255	; 0xff
 80040fa:	d01e      	beq.n	800413a <_ZL17parse_lsda_headerP15_Unwind_ContextPKhP16lsda_header_info+0x5a>
 80040fc:	4602      	mov	r2, r0
 80040fe:	1d2b      	adds	r3, r5, #4
 8004100:	4630      	mov	r0, r6
 8004102:	f7ff ffdc 	bl	80040be <_ZL18read_encoded_valueP15_Unwind_ContexthPKhPj>
 8004106:	f810 3b01 	ldrb.w	r3, [r0], #1
 800410a:	752b      	strb	r3, [r5, #20]
 800410c:	2bff      	cmp	r3, #255	; 0xff
 800410e:	d016      	beq.n	800413e <_ZL17parse_lsda_headerP15_Unwind_ContextPKhP16lsda_header_info+0x5e>
 8004110:	2310      	movs	r3, #16
 8004112:	752b      	strb	r3, [r5, #20]
 8004114:	a901      	add	r1, sp, #4
 8004116:	f7ff ff41 	bl	8003f9c <_ZL12read_uleb128PKhPm>
 800411a:	9b01      	ldr	r3, [sp, #4]
 800411c:	4403      	add	r3, r0
 800411e:	60eb      	str	r3, [r5, #12]
 8004120:	f810 3b01 	ldrb.w	r3, [r0], #1
 8004124:	756b      	strb	r3, [r5, #21]
 8004126:	a901      	add	r1, sp, #4
 8004128:	f7ff ff38 	bl	8003f9c <_ZL12read_uleb128PKhPm>
 800412c:	9b01      	ldr	r3, [sp, #4]
 800412e:	4403      	add	r3, r0
 8004130:	612b      	str	r3, [r5, #16]
 8004132:	b002      	add	sp, #8
 8004134:	bd70      	pop	{r4, r5, r6, pc}
 8004136:	4603      	mov	r3, r0
 8004138:	e7da      	b.n	80040f0 <_ZL17parse_lsda_headerP15_Unwind_ContextPKhP16lsda_header_info+0x10>
 800413a:	606b      	str	r3, [r5, #4]
 800413c:	e7e3      	b.n	8004106 <_ZL17parse_lsda_headerP15_Unwind_ContextPKhP16lsda_header_info+0x26>
 800413e:	2300      	movs	r3, #0
 8004140:	e7ed      	b.n	800411e <_ZL17parse_lsda_headerP15_Unwind_ContextPKhP16lsda_header_info+0x3e>

08004142 <_Unwind_GetGR>:
 8004142:	b51f      	push	{r0, r1, r2, r3, r4, lr}
 8004144:	ab03      	add	r3, sp, #12
 8004146:	9300      	str	r3, [sp, #0]
 8004148:	2300      	movs	r3, #0
 800414a:	460a      	mov	r2, r1
 800414c:	4619      	mov	r1, r3
 800414e:	f7fc fd11 	bl	8000b74 <_Unwind_VRS_Get>
 8004152:	9803      	ldr	r0, [sp, #12]
 8004154:	b005      	add	sp, #20
 8004156:	f85d fb04 	ldr.w	pc, [sp], #4
	...

0800415c <__gxx_personality_v0>:
 800415c:	e92d 4ff0 	stmdb	sp!, {r4, r5, r6, r7, r8, r9, sl, fp, lr}
 8004160:	b091      	sub	sp, #68	; 0x44
 8004162:	2300      	movs	r3, #0
 8004164:	9305      	str	r3, [sp, #20]
 8004166:	f000 0303 	and.w	r3, r0, #3
 800416a:	2b01      	cmp	r3, #1
 800416c:	4606      	mov	r6, r0
 800416e:	460c      	mov	r4, r1
 8004170:	4617      	mov	r7, r2
 8004172:	d00e      	beq.n	8004192 <__gxx_personality_v0+0x36>
 8004174:	2b02      	cmp	r3, #2
 8004176:	d003      	beq.n	8004180 <__gxx_personality_v0+0x24>
 8004178:	2b00      	cmp	r3, #0
 800417a:	d13b      	bne.n	80041f4 <__gxx_personality_v0+0x98>
 800417c:	0701      	lsls	r1, r0, #28
 800417e:	d53b      	bpl.n	80041f8 <__gxx_personality_v0+0x9c>
 8004180:	4639      	mov	r1, r7
 8004182:	4620      	mov	r0, r4
 8004184:	f7fd fa60 	bl	8001648 <__gnu_unwind_frame>
 8004188:	b390      	cbz	r0, 80041f0 <__gxx_personality_v0+0x94>
 800418a:	2009      	movs	r0, #9
 800418c:	b011      	add	sp, #68	; 0x44
 800418e:	e8bd 8ff0 	ldmia.w	sp!, {r4, r5, r6, r7, r8, r9, sl, fp, pc}
 8004192:	0702      	lsls	r2, r0, #28
 8004194:	d406      	bmi.n	80041a4 <__gxx_personality_v0+0x48>
 8004196:	6a0d      	ldr	r5, [r1, #32]
 8004198:	4638      	mov	r0, r7
 800419a:	210d      	movs	r1, #13
 800419c:	f7ff ffd1 	bl	8004142 <_Unwind_GetGR>
 80041a0:	4285      	cmp	r5, r0
 80041a2:	d02b      	beq.n	80041fc <__gxx_personality_v0+0xa0>
 80041a4:	2002      	movs	r0, #2
 80041a6:	2300      	movs	r3, #0
 80041a8:	f006 0608 	and.w	r6, r6, #8
 80041ac:	f10d 0a28 	add.w	sl, sp, #40	; 0x28
 80041b0:	4306      	orrs	r6, r0
 80041b2:	f8cd a000 	str.w	sl, [sp]
 80041b6:	220c      	movs	r2, #12
 80041b8:	4619      	mov	r1, r3
 80041ba:	4638      	mov	r0, r7
 80041bc:	940a      	str	r4, [sp, #40]	; 0x28
 80041be:	f7fc fcfd 	bl	8000bbc <_Unwind_VRS_Set>
 80041c2:	2e06      	cmp	r6, #6
 80041c4:	d11c      	bne.n	8004200 <__gxx_personality_v0+0xa4>
 80041c6:	f8d4 8030 	ldr.w	r8, [r4, #48]	; 0x30
 80041ca:	e9d4 590a 	ldrd	r5, r9, [r4, #40]	; 0x28
 80041ce:	f1b8 0f00 	cmp.w	r8, #0
 80041d2:	bf0c      	ite	eq
 80041d4:	f04f 0b01 	moveq.w	fp, #1
 80041d8:	f04f 0b03 	movne.w	fp, #3
 80041dc:	f016 0608 	ands.w	r6, r6, #8
 80041e0:	f000 810c 	beq.w	80043fc <__gxx_personality_v0+0x2a0>
 80041e4:	f1bb 0f01 	cmp.w	fp, #1
 80041e8:	f040 8104 	bne.w	80043f4 <__gxx_personality_v0+0x298>
 80041ec:	f000 f964 	bl	80044b8 <_ZSt9terminatev>
 80041f0:	2008      	movs	r0, #8
 80041f2:	e7cb      	b.n	800418c <__gxx_personality_v0+0x30>
 80041f4:	f000 fb24 	bl	8004840 <abort>
 80041f8:	2001      	movs	r0, #1
 80041fa:	e7d4      	b.n	80041a6 <__gxx_personality_v0+0x4a>
 80041fc:	2006      	movs	r0, #6
 80041fe:	e7d2      	b.n	80041a6 <__gxx_personality_v0+0x4a>
 8004200:	4638      	mov	r0, r7
 8004202:	f7fd fa3d 	bl	8001680 <_Unwind_GetLanguageSpecificData>
 8004206:	4681      	mov	r9, r0
 8004208:	2800      	cmp	r0, #0
 800420a:	d0b9      	beq.n	8004180 <__gxx_personality_v0+0x24>
 800420c:	4652      	mov	r2, sl
 800420e:	4601      	mov	r1, r0
 8004210:	4638      	mov	r0, r7
 8004212:	f7ff ff65 	bl	80040e0 <_ZL17parse_lsda_headerP15_Unwind_ContextPKhP16lsda_header_info>
 8004216:	4639      	mov	r1, r7
 8004218:	4605      	mov	r5, r0
 800421a:	f89d 003c 	ldrb.w	r0, [sp, #60]	; 0x3c
 800421e:	f7ff ff2a 	bl	8004076 <_ZL21base_of_encoded_valuehP15_Unwind_Context>
 8004222:	210f      	movs	r1, #15
 8004224:	900c      	str	r0, [sp, #48]	; 0x30
 8004226:	4638      	mov	r0, r7
 8004228:	f7ff ff8b 	bl	8004142 <_Unwind_GetGR>
 800422c:	f020 0801 	bic.w	r8, r0, #1
 8004230:	f108 38ff 	add.w	r8, r8, #4294967295	; 0xffffffff
 8004234:	9b0e      	ldr	r3, [sp, #56]	; 0x38
 8004236:	42ab      	cmp	r3, r5
 8004238:	f240 80c4 	bls.w	80043c4 <__gxx_personality_v0+0x268>
 800423c:	462a      	mov	r2, r5
 800423e:	f89d 103d 	ldrb.w	r1, [sp, #61]	; 0x3d
 8004242:	ab06      	add	r3, sp, #24
 8004244:	2000      	movs	r0, #0
 8004246:	f7ff ff3a 	bl	80040be <_ZL18read_encoded_valueP15_Unwind_ContexthPKhPj>
 800424a:	f89d 103d 	ldrb.w	r1, [sp, #61]	; 0x3d
 800424e:	4602      	mov	r2, r0
 8004250:	ab07      	add	r3, sp, #28
 8004252:	2000      	movs	r0, #0
 8004254:	f7ff ff33 	bl	80040be <_ZL18read_encoded_valueP15_Unwind_ContexthPKhPj>
 8004258:	ab08      	add	r3, sp, #32
 800425a:	4602      	mov	r2, r0
 800425c:	f89d 103d 	ldrb.w	r1, [sp, #61]	; 0x3d
 8004260:	2000      	movs	r0, #0
 8004262:	f7ff ff2c 	bl	80040be <_ZL18read_encoded_valueP15_Unwind_ContexthPKhPj>
 8004266:	a909      	add	r1, sp, #36	; 0x24
 8004268:	f7ff fe98 	bl	8003f9c <_ZL12read_uleb128PKhPm>
 800426c:	9b0a      	ldr	r3, [sp, #40]	; 0x28
 800426e:	9a06      	ldr	r2, [sp, #24]
 8004270:	4413      	add	r3, r2
 8004272:	4543      	cmp	r3, r8
 8004274:	4605      	mov	r5, r0
 8004276:	d901      	bls.n	800427c <__gxx_personality_v0+0x120>
 8004278:	9d0e      	ldr	r5, [sp, #56]	; 0x38
 800427a:	e7db      	b.n	8004234 <__gxx_personality_v0+0xd8>
 800427c:	9a07      	ldr	r2, [sp, #28]
 800427e:	4413      	add	r3, r2
 8004280:	4543      	cmp	r3, r8
 8004282:	d9d7      	bls.n	8004234 <__gxx_personality_v0+0xd8>
 8004284:	f8dd 8020 	ldr.w	r8, [sp, #32]
 8004288:	f1b8 0f00 	cmp.w	r8, #0
 800428c:	d001      	beq.n	8004292 <__gxx_personality_v0+0x136>
 800428e:	9b0b      	ldr	r3, [sp, #44]	; 0x2c
 8004290:	4498      	add	r8, r3
 8004292:	9d09      	ldr	r5, [sp, #36]	; 0x24
 8004294:	b115      	cbz	r5, 800429c <__gxx_personality_v0+0x140>
 8004296:	980e      	ldr	r0, [sp, #56]	; 0x38
 8004298:	3d01      	subs	r5, #1
 800429a:	4405      	add	r5, r0
 800429c:	f1b8 0f00 	cmp.w	r8, #0
 80042a0:	f43f af6e 	beq.w	8004180 <__gxx_personality_v0+0x24>
 80042a4:	2d00      	cmp	r5, #0
 80042a6:	f000 80f7 	beq.w	8004498 <__gxx_personality_v0+0x33c>
 80042aa:	f016 0308 	ands.w	r3, r6, #8
 80042ae:	9302      	str	r3, [sp, #8]
 80042b0:	d034      	beq.n	800431c <__gxx_personality_v0+0x1c0>
 80042b2:	2347      	movs	r3, #71	; 0x47
 80042b4:	7023      	strb	r3, [r4, #0]
 80042b6:	234e      	movs	r3, #78	; 0x4e
 80042b8:	7063      	strb	r3, [r4, #1]
 80042ba:	2355      	movs	r3, #85	; 0x55
 80042bc:	70a3      	strb	r3, [r4, #2]
 80042be:	2343      	movs	r3, #67	; 0x43
 80042c0:	70e3      	strb	r3, [r4, #3]
 80042c2:	2346      	movs	r3, #70	; 0x46
 80042c4:	7123      	strb	r3, [r4, #4]
 80042c6:	234f      	movs	r3, #79	; 0x4f
 80042c8:	7163      	strb	r3, [r4, #5]
 80042ca:	2352      	movs	r3, #82	; 0x52
 80042cc:	71a3      	strb	r3, [r4, #6]
 80042ce:	2300      	movs	r3, #0
 80042d0:	71e3      	strb	r3, [r4, #7]
 80042d2:	f04f 0b00 	mov.w	fp, #0
 80042d6:	a907      	add	r1, sp, #28
 80042d8:	4628      	mov	r0, r5
 80042da:	f7ff fe6e 	bl	8003fba <_ZL12read_sleb128PKhPl>
 80042de:	a908      	add	r1, sp, #32
 80042e0:	9003      	str	r0, [sp, #12]
 80042e2:	f7ff fe6a 	bl	8003fba <_ZL12read_sleb128PKhPl>
 80042e6:	9907      	ldr	r1, [sp, #28]
 80042e8:	2900      	cmp	r1, #0
 80042ea:	d068      	beq.n	80043be <__gxx_personality_v0+0x262>
 80042ec:	dd3a      	ble.n	8004364 <__gxx_personality_v0+0x208>
 80042ee:	f89d 003c 	ldrb.w	r0, [sp, #60]	; 0x3c
 80042f2:	28ff      	cmp	r0, #255	; 0xff
 80042f4:	d032      	beq.n	800435c <__gxx_personality_v0+0x200>
 80042f6:	f000 0307 	and.w	r3, r0, #7
 80042fa:	2b04      	cmp	r3, #4
 80042fc:	f63f af7a 	bhi.w	80041f4 <__gxx_personality_v0+0x98>
 8004300:	a201      	add	r2, pc, #4	; (adr r2, 8004308 <__gxx_personality_v0+0x1ac>)
 8004302:	f852 f023 	ldr.w	pc, [r2, r3, lsl #2]
 8004306:	bf00      	nop
 8004308:	08004361 	.word	0x08004361
 800430c:	080041f5 	.word	0x080041f5
 8004310:	0800432f 	.word	0x0800432f
 8004314:	08004361 	.word	0x08004361
 8004318:	08004359 	.word	0x08004359
 800431c:	79e3      	ldrb	r3, [r4, #7]
 800431e:	2b01      	cmp	r3, #1
 8004320:	bf0c      	ite	eq
 8004322:	f854 3c20 	ldreq.w	r3, [r4, #-32]
 8004326:	f104 0358 	addne.w	r3, r4, #88	; 0x58
 800432a:	9305      	str	r3, [sp, #20]
 800432c:	e7d1      	b.n	80042d2 <__gxx_personality_v0+0x176>
 800432e:	2502      	movs	r5, #2
 8004330:	9a0d      	ldr	r2, [sp, #52]	; 0x34
 8004332:	ab09      	add	r3, sp, #36	; 0x24
 8004334:	fb05 2211 	mls	r2, r5, r1, r2
 8004338:	990c      	ldr	r1, [sp, #48]	; 0x30
 800433a:	f7ff fe56 	bl	8003fea <_ZL28read_encoded_value_with_basehjPKhPj>
 800433e:	9909      	ldr	r1, [sp, #36]	; 0x24
 8004340:	b131      	cbz	r1, 8004350 <__gxx_personality_v0+0x1f4>
 8004342:	b37c      	cbz	r4, 80043a4 <__gxx_personality_v0+0x248>
 8004344:	ab05      	add	r3, sp, #20
 8004346:	2200      	movs	r2, #0
 8004348:	4620      	mov	r0, r4
 800434a:	f7ff fd8f 	bl	8003e6c <__cxa_type_match>
 800434e:	b348      	cbz	r0, 80043a4 <__gxx_personality_v0+0x248>
 8004350:	9d07      	ldr	r5, [sp, #28]
 8004352:	f04f 0b03 	mov.w	fp, #3
 8004356:	e039      	b.n	80043cc <__gxx_personality_v0+0x270>
 8004358:	2508      	movs	r5, #8
 800435a:	e7e9      	b.n	8004330 <__gxx_personality_v0+0x1d4>
 800435c:	2500      	movs	r5, #0
 800435e:	e7e7      	b.n	8004330 <__gxx_personality_v0+0x1d4>
 8004360:	2504      	movs	r5, #4
 8004362:	e7e5      	b.n	8004330 <__gxx_personality_v0+0x1d4>
 8004364:	f1c1 517f 	rsb	r1, r1, #1069547520	; 0x3fc00000
 8004368:	f501 117f 	add.w	r1, r1, #4177920	; 0x3fc000
 800436c:	9b0d      	ldr	r3, [sp, #52]	; 0x34
 800436e:	f501 517f 	add.w	r1, r1, #16320	; 0x3fc0
 8004372:	313f      	adds	r1, #63	; 0x3f
 8004374:	eb03 0581 	add.w	r5, r3, r1, lsl #2
 8004378:	b1dc      	cbz	r4, 80043b2 <__gxx_personality_v0+0x256>
 800437a:	9a02      	ldr	r2, [sp, #8]
 800437c:	b9ca      	cbnz	r2, 80043b2 <__gxx_personality_v0+0x256>
 800437e:	9b05      	ldr	r3, [sp, #20]
 8004380:	9309      	str	r3, [sp, #36]	; 0x24
 8004382:	3d04      	subs	r5, #4
 8004384:	f855 1f04 	ldr.w	r1, [r5, #4]!
 8004388:	b141      	cbz	r1, 800439c <__gxx_personality_v0+0x240>
 800438a:	ab09      	add	r3, sp, #36	; 0x24
 800438c:	2200      	movs	r2, #0
 800438e:	4429      	add	r1, r5
 8004390:	4620      	mov	r0, r4
 8004392:	f7ff fd6b 	bl	8003e6c <__cxa_type_match>
 8004396:	2800      	cmp	r0, #0
 8004398:	d0f4      	beq.n	8004384 <__gxx_personality_v0+0x228>
 800439a:	2101      	movs	r1, #1
 800439c:	f081 0101 	eor.w	r1, r1, #1
 80043a0:	2900      	cmp	r1, #0
 80043a2:	d1d5      	bne.n	8004350 <__gxx_personality_v0+0x1f4>
 80043a4:	9d08      	ldr	r5, [sp, #32]
 80043a6:	2d00      	cmp	r5, #0
 80043a8:	d072      	beq.n	8004490 <__gxx_personality_v0+0x334>
 80043aa:	9b03      	ldr	r3, [sp, #12]
 80043ac:	442b      	add	r3, r5
 80043ae:	461d      	mov	r5, r3
 80043b0:	e791      	b.n	80042d6 <__gxx_personality_v0+0x17a>
 80043b2:	f853 1021 	ldr.w	r1, [r3, r1, lsl #2]
 80043b6:	fab1 f181 	clz	r1, r1
 80043ba:	0949      	lsrs	r1, r1, #5
 80043bc:	e7f0      	b.n	80043a0 <__gxx_personality_v0+0x244>
 80043be:	f04f 0b01 	mov.w	fp, #1
 80043c2:	e7ef      	b.n	80043a4 <__gxx_personality_v0+0x248>
 80043c4:	2500      	movs	r5, #0
 80043c6:	46a8      	mov	r8, r5
 80043c8:	f04f 0b01 	mov.w	fp, #1
 80043cc:	07f3      	lsls	r3, r6, #31
 80043ce:	f57f af05 	bpl.w	80041dc <__gxx_personality_v0+0x80>
 80043d2:	f1bb 0f02 	cmp.w	fp, #2
 80043d6:	f43f aed3 	beq.w	8004180 <__gxx_personality_v0+0x24>
 80043da:	210d      	movs	r1, #13
 80043dc:	4638      	mov	r0, r7
 80043de:	9e05      	ldr	r6, [sp, #20]
 80043e0:	f7ff feaf 	bl	8004142 <_Unwind_GetGR>
 80043e4:	e9c4 590a 	strd	r5, r9, [r4, #40]	; 0x28
 80043e8:	e9c4 0608 	strd	r0, r6, [r4, #32]
 80043ec:	f8c4 8030 	str.w	r8, [r4, #48]	; 0x30
 80043f0:	2006      	movs	r0, #6
 80043f2:	e6cb      	b.n	800418c <__gxx_personality_v0+0x30>
 80043f4:	2d00      	cmp	r5, #0
 80043f6:	da22      	bge.n	800443e <__gxx_personality_v0+0x2e2>
 80043f8:	f000 f870 	bl	80044dc <_ZSt10unexpectedv>
 80043fc:	f1bb 0f01 	cmp.w	fp, #1
 8004400:	d102      	bne.n	8004408 <__gxx_personality_v0+0x2ac>
 8004402:	4620      	mov	r0, r4
 8004404:	f000 f9ab 	bl	800475e <__cxa_call_terminate>
 8004408:	2d00      	cmp	r5, #0
 800440a:	da18      	bge.n	800443e <__gxx_personality_v0+0x2e2>
 800440c:	4652      	mov	r2, sl
 800440e:	4649      	mov	r1, r9
 8004410:	4638      	mov	r0, r7
 8004412:	f7ff fe65 	bl	80040e0 <_ZL17parse_lsda_headerP15_Unwind_ContextPKhP16lsda_header_info>
 8004416:	f89d 003c 	ldrb.w	r0, [sp, #60]	; 0x3c
 800441a:	4639      	mov	r1, r7
 800441c:	f7ff fe2b 	bl	8004076 <_ZL21base_of_encoded_valuehP15_Unwind_Context>
 8004420:	9a0d      	ldr	r2, [sp, #52]	; 0x34
 8004422:	900c      	str	r0, [sp, #48]	; 0x30
 8004424:	43eb      	mvns	r3, r5
 8004426:	eb02 0383 	add.w	r3, r2, r3, lsl #2
 800442a:	f853 2026 	ldr.w	r2, [r3, r6, lsl #2]
 800442e:	b10a      	cbz	r2, 8004434 <__gxx_personality_v0+0x2d8>
 8004430:	3601      	adds	r6, #1
 8004432:	e7fa      	b.n	800442a <__gxx_personality_v0+0x2ce>
 8004434:	2204      	movs	r2, #4
 8004436:	e9c4 600a 	strd	r6, r0, [r4, #40]	; 0x28
 800443a:	e9c4 230c 	strd	r2, r3, [r4, #48]	; 0x30
 800443e:	2300      	movs	r3, #0
 8004440:	ae09      	add	r6, sp, #36	; 0x24
 8004442:	461a      	mov	r2, r3
 8004444:	4619      	mov	r1, r3
 8004446:	9600      	str	r6, [sp, #0]
 8004448:	4638      	mov	r0, r7
 800444a:	9409      	str	r4, [sp, #36]	; 0x24
 800444c:	f7fc fbb6 	bl	8000bbc <_Unwind_VRS_Set>
 8004450:	2300      	movs	r3, #0
 8004452:	4619      	mov	r1, r3
 8004454:	2201      	movs	r2, #1
 8004456:	9600      	str	r6, [sp, #0]
 8004458:	4638      	mov	r0, r7
 800445a:	9509      	str	r5, [sp, #36]	; 0x24
 800445c:	f7fc fbae 	bl	8000bbc <_Unwind_VRS_Set>
 8004460:	210f      	movs	r1, #15
 8004462:	4638      	mov	r0, r7
 8004464:	f7ff fe6d 	bl	8004142 <_Unwind_GetGR>
 8004468:	f000 0001 	and.w	r0, r0, #1
 800446c:	ea40 0008 	orr.w	r0, r0, r8
 8004470:	2300      	movs	r3, #0
 8004472:	9009      	str	r0, [sp, #36]	; 0x24
 8004474:	9600      	str	r6, [sp, #0]
 8004476:	220f      	movs	r2, #15
 8004478:	4619      	mov	r1, r3
 800447a:	4638      	mov	r0, r7
 800447c:	f7fc fb9e 	bl	8000bbc <_Unwind_VRS_Set>
 8004480:	f1bb 0f02 	cmp.w	fp, #2
 8004484:	d102      	bne.n	800448c <__gxx_personality_v0+0x330>
 8004486:	4620      	mov	r0, r4
 8004488:	f7ff fd4e 	bl	8003f28 <__cxa_begin_cleanup>
 800448c:	2007      	movs	r0, #7
 800448e:	e67d      	b.n	800418c <__gxx_personality_v0+0x30>
 8004490:	f1bb 0f00 	cmp.w	fp, #0
 8004494:	f43f ae74 	beq.w	8004180 <__gxx_personality_v0+0x24>
 8004498:	f04f 0b02 	mov.w	fp, #2
 800449c:	e796      	b.n	80043cc <__gxx_personality_v0+0x270>
 800449e:	bf00      	nop

080044a0 <_ZN10__cxxabiv111__terminateEPFvvE>:
 80044a0:	b508      	push	{r3, lr}
 80044a2:	4780      	blx	r0
 80044a4:	f000 f9cc 	bl	8004840 <abort>

080044a8 <_ZSt13get_terminatev>:
 80044a8:	4b02      	ldr	r3, [pc, #8]	; (80044b4 <_ZSt13get_terminatev+0xc>)
 80044aa:	6818      	ldr	r0, [r3, #0]
 80044ac:	f3bf 8f5b 	dmb	ish
 80044b0:	4770      	bx	lr
 80044b2:	bf00      	nop
 80044b4:	20000010 	.word	0x20000010

080044b8 <_ZSt9terminatev>:
 80044b8:	b508      	push	{r3, lr}
 80044ba:	f7ff fff5 	bl	80044a8 <_ZSt13get_terminatev>
 80044be:	f7ff ffef 	bl	80044a0 <_ZN10__cxxabiv111__terminateEPFvvE>

080044c2 <_ZN10__cxxabiv112__unexpectedEPFvvE>:
 80044c2:	b508      	push	{r3, lr}
 80044c4:	4780      	blx	r0
 80044c6:	f7ff fff7 	bl	80044b8 <_ZSt9terminatev>
	...

080044cc <_ZSt14get_unexpectedv>:
 80044cc:	4b02      	ldr	r3, [pc, #8]	; (80044d8 <_ZSt14get_unexpectedv+0xc>)
 80044ce:	6818      	ldr	r0, [r3, #0]
 80044d0:	f3bf 8f5b 	dmb	ish
 80044d4:	4770      	bx	lr
 80044d6:	bf00      	nop
 80044d8:	2000000c 	.word	0x2000000c

080044dc <_ZSt10unexpectedv>:
 80044dc:	b508      	push	{r3, lr}
 80044de:	f7ff fff5 	bl	80044cc <_ZSt14get_unexpectedv>
 80044e2:	f7ff ffee 	bl	80044c2 <_ZN10__cxxabiv112__unexpectedEPFvvE>

080044e6 <_Znwj>:
 80044e6:	2801      	cmp	r0, #1
 80044e8:	bf38      	it	cc
 80044ea:	2001      	movcc	r0, #1
 80044ec:	b510      	push	{r4, lr}
 80044ee:	4604      	mov	r4, r0
 80044f0:	4620      	mov	r0, r4
 80044f2:	f000 f9d7 	bl	80048a4 <malloc>
 80044f6:	b930      	cbnz	r0, 8004506 <_Znwj+0x20>
 80044f8:	f000 f99a 	bl	8004830 <_ZSt15get_new_handlerv>
 80044fc:	b908      	cbnz	r0, 8004502 <_Znwj+0x1c>
 80044fe:	f000 f99f 	bl	8004840 <abort>
 8004502:	4780      	blx	r0
 8004504:	e7f4      	b.n	80044f0 <_Znwj+0xa>
 8004506:	bd10      	pop	{r4, pc}

08004508 <_ZN10__cxxabiv120__si_class_type_infoD1Ev>:
 8004508:	b510      	push	{r4, lr}
 800450a:	4b03      	ldr	r3, [pc, #12]	; (8004518 <_ZN10__cxxabiv120__si_class_type_infoD1Ev+0x10>)
 800450c:	6003      	str	r3, [r0, #0]
 800450e:	4604      	mov	r4, r0
 8004510:	f000 f8b2 	bl	8004678 <_ZN10__cxxabiv117__class_type_infoD1Ev>
 8004514:	4620      	mov	r0, r4
 8004516:	bd10      	pop	{r4, pc}
 8004518:	08004bfc 	.word	0x08004bfc

0800451c <_ZN10__cxxabiv120__si_class_type_infoD0Ev>:
 800451c:	b510      	push	{r4, lr}
 800451e:	4604      	mov	r4, r0
 8004520:	f7ff fff2 	bl	8004508 <_ZN10__cxxabiv120__si_class_type_infoD1Ev>
 8004524:	4620      	mov	r0, r4
 8004526:	210c      	movs	r1, #12
 8004528:	f7ff fc7a 	bl	8003e20 <_ZdlPvj>
 800452c:	4620      	mov	r0, r4
 800452e:	bd10      	pop	{r4, pc}

08004530 <_ZNK10__cxxabiv120__si_class_type_info20__do_find_public_srcEiPKvPKNS_17__class_type_infoES2_>:
 8004530:	b5f7      	push	{r0, r1, r2, r4, r5, r6, r7, lr}
 8004532:	9f08      	ldr	r7, [sp, #32]
 8004534:	4297      	cmp	r7, r2
 8004536:	4605      	mov	r5, r0
 8004538:	460e      	mov	r6, r1
 800453a:	4614      	mov	r4, r2
 800453c:	d00a      	beq.n	8004554 <_ZNK10__cxxabiv120__si_class_type_info20__do_find_public_srcEiPKvPKNS_17__class_type_infoES2_+0x24>
 800453e:	68a8      	ldr	r0, [r5, #8]
 8004540:	6802      	ldr	r2, [r0, #0]
 8004542:	9708      	str	r7, [sp, #32]
 8004544:	6a15      	ldr	r5, [r2, #32]
 8004546:	4631      	mov	r1, r6
 8004548:	4622      	mov	r2, r4
 800454a:	46ac      	mov	ip, r5
 800454c:	b003      	add	sp, #12
 800454e:	e8bd 40f0 	ldmia.w	sp!, {r4, r5, r6, r7, lr}
 8004552:	4760      	bx	ip
 8004554:	4619      	mov	r1, r3
 8004556:	9301      	str	r3, [sp, #4]
 8004558:	f000 f858 	bl	800460c <_ZNKSt9type_infoeqERKS_>
 800455c:	9b01      	ldr	r3, [sp, #4]
 800455e:	2800      	cmp	r0, #0
 8004560:	d0ed      	beq.n	800453e <_ZNK10__cxxabiv120__si_class_type_info20__do_find_public_srcEiPKvPKNS_17__class_type_infoES2_+0xe>
 8004562:	2006      	movs	r0, #6
 8004564:	b003      	add	sp, #12
 8004566:	bdf0      	pop	{r4, r5, r6, r7, pc}

08004568 <_ZNK10__cxxabiv120__si_class_type_info12__do_dyncastEiNS_17__class_type_info10__sub_kindEPKS1_PKvS4_S6_RNS1_16__dyncast_resultE>:
 8004568:	e92d 4ff1 	stmdb	sp!, {r0, r4, r5, r6, r7, r8, r9, sl, fp, lr}
 800456c:	460d      	mov	r5, r1
 800456e:	4619      	mov	r1, r3
 8004570:	e9dd 4b0a 	ldrd	r4, fp, [sp, #40]	; 0x28
 8004574:	e9dd a60c 	ldrd	sl, r6, [sp, #48]	; 0x30
 8004578:	4681      	mov	r9, r0
 800457a:	4617      	mov	r7, r2
 800457c:	4698      	mov	r8, r3
 800457e:	f000 f845 	bl	800460c <_ZNKSt9type_infoeqERKS_>
 8004582:	b190      	cbz	r0, 80045aa <_ZNK10__cxxabiv120__si_class_type_info12__do_dyncastEiNS_17__class_type_info10__sub_kindEPKS1_PKvS4_S6_RNS1_16__dyncast_resultE+0x42>
 8004584:	2d00      	cmp	r5, #0
 8004586:	6034      	str	r4, [r6, #0]
 8004588:	7137      	strb	r7, [r6, #4]
 800458a:	db09      	blt.n	80045a0 <_ZNK10__cxxabiv120__si_class_type_info12__do_dyncastEiNS_17__class_type_info10__sub_kindEPKS1_PKvS4_S6_RNS1_16__dyncast_resultE+0x38>
 800458c:	1961      	adds	r1, r4, r5
 800458e:	458a      	cmp	sl, r1
 8004590:	bf0c      	ite	eq
 8004592:	2106      	moveq	r1, #6
 8004594:	2101      	movne	r1, #1
 8004596:	71b1      	strb	r1, [r6, #6]
 8004598:	2000      	movs	r0, #0
 800459a:	b001      	add	sp, #4
 800459c:	e8bd 8ff0 	ldmia.w	sp!, {r4, r5, r6, r7, r8, r9, sl, fp, pc}
 80045a0:	3502      	adds	r5, #2
 80045a2:	d1f9      	bne.n	8004598 <_ZNK10__cxxabiv120__si_class_type_info12__do_dyncastEiNS_17__class_type_info10__sub_kindEPKS1_PKvS4_S6_RNS1_16__dyncast_resultE+0x30>
 80045a4:	2301      	movs	r3, #1
 80045a6:	71b3      	strb	r3, [r6, #6]
 80045a8:	e7f6      	b.n	8004598 <_ZNK10__cxxabiv120__si_class_type_info12__do_dyncastEiNS_17__class_type_info10__sub_kindEPKS1_PKvS4_S6_RNS1_16__dyncast_resultE+0x30>
 80045aa:	4554      	cmp	r4, sl
 80045ac:	d106      	bne.n	80045bc <_ZNK10__cxxabiv120__si_class_type_info12__do_dyncastEiNS_17__class_type_info10__sub_kindEPKS1_PKvS4_S6_RNS1_16__dyncast_resultE+0x54>
 80045ae:	4659      	mov	r1, fp
 80045b0:	4648      	mov	r0, r9
 80045b2:	f000 f82b 	bl	800460c <_ZNKSt9type_infoeqERKS_>
 80045b6:	b108      	cbz	r0, 80045bc <_ZNK10__cxxabiv120__si_class_type_info12__do_dyncastEiNS_17__class_type_info10__sub_kindEPKS1_PKvS4_S6_RNS1_16__dyncast_resultE+0x54>
 80045b8:	7177      	strb	r7, [r6, #5]
 80045ba:	e7ed      	b.n	8004598 <_ZNK10__cxxabiv120__si_class_type_info12__do_dyncastEiNS_17__class_type_info10__sub_kindEPKS1_PKvS4_S6_RNS1_16__dyncast_resultE+0x30>
 80045bc:	f8d9 0008 	ldr.w	r0, [r9, #8]
 80045c0:	6803      	ldr	r3, [r0, #0]
 80045c2:	e9cd a60c 	strd	sl, r6, [sp, #48]	; 0x30
 80045c6:	e9cd 4b0a 	strd	r4, fp, [sp, #40]	; 0x28
 80045ca:	69dc      	ldr	r4, [r3, #28]
 80045cc:	463a      	mov	r2, r7
 80045ce:	4643      	mov	r3, r8
 80045d0:	4629      	mov	r1, r5
 80045d2:	46a4      	mov	ip, r4
 80045d4:	b001      	add	sp, #4
 80045d6:	e8bd 4ff0 	ldmia.w	sp!, {r4, r5, r6, r7, r8, r9, sl, fp, lr}
 80045da:	4760      	bx	ip

080045dc <_ZNK10__cxxabiv120__si_class_type_info11__do_upcastEPKNS_17__class_type_infoEPKvRNS1_15__upcast_resultE>:
 80045dc:	e92d 41f0 	stmdb	sp!, {r4, r5, r6, r7, r8, lr}
 80045e0:	4607      	mov	r7, r0
 80045e2:	460c      	mov	r4, r1
 80045e4:	4615      	mov	r5, r2
 80045e6:	461e      	mov	r6, r3
 80045e8:	f000 f879 	bl	80046de <_ZNK10__cxxabiv117__class_type_info11__do_upcastEPKS0_PKvRNS0_15__upcast_resultE>
 80045ec:	b948      	cbnz	r0, 8004602 <_ZNK10__cxxabiv120__si_class_type_info11__do_upcastEPKNS_17__class_type_infoEPKvRNS1_15__upcast_resultE+0x26>
 80045ee:	68b8      	ldr	r0, [r7, #8]
 80045f0:	6803      	ldr	r3, [r0, #0]
 80045f2:	699f      	ldr	r7, [r3, #24]
 80045f4:	462a      	mov	r2, r5
 80045f6:	4633      	mov	r3, r6
 80045f8:	4621      	mov	r1, r4
 80045fa:	46bc      	mov	ip, r7
 80045fc:	e8bd 41f0 	ldmia.w	sp!, {r4, r5, r6, r7, r8, lr}
 8004600:	4760      	bx	ip
 8004602:	e8bd 81f0 	ldmia.w	sp!, {r4, r5, r6, r7, r8, pc}

08004606 <_ZNSt9type_infoD1Ev>:
 8004606:	4770      	bx	lr

08004608 <_ZNKSt9type_info14__is_pointer_pEv>:
 8004608:	2000      	movs	r0, #0
 800460a:	4770      	bx	lr

0800460c <_ZNKSt9type_infoeqERKS_>:
 800460c:	4281      	cmp	r1, r0
 800460e:	b508      	push	{r3, lr}
 8004610:	d00e      	beq.n	8004630 <_ZNKSt9type_infoeqERKS_+0x24>
 8004612:	6840      	ldr	r0, [r0, #4]
 8004614:	7803      	ldrb	r3, [r0, #0]
 8004616:	2b2a      	cmp	r3, #42	; 0x2a
 8004618:	d00c      	beq.n	8004634 <_ZNKSt9type_infoeqERKS_+0x28>
 800461a:	6849      	ldr	r1, [r1, #4]
 800461c:	780b      	ldrb	r3, [r1, #0]
 800461e:	2b2a      	cmp	r3, #42	; 0x2a
 8004620:	bf08      	it	eq
 8004622:	3101      	addeq	r1, #1
 8004624:	f7fb fdd4 	bl	80001d0 <strcmp>
 8004628:	fab0 f080 	clz	r0, r0
 800462c:	0940      	lsrs	r0, r0, #5
 800462e:	bd08      	pop	{r3, pc}
 8004630:	2001      	movs	r0, #1
 8004632:	e7fc      	b.n	800462e <_ZNKSt9type_infoeqERKS_+0x22>
 8004634:	2000      	movs	r0, #0
 8004636:	e7fa      	b.n	800462e <_ZNKSt9type_infoeqERKS_+0x22>

08004638 <_ZNK10__cxxabiv117__class_type_info11__do_upcastEPKS0_PPv>:
 8004638:	b57f      	push	{r0, r1, r2, r3, r4, r5, r6, lr}
 800463a:	2400      	movs	r4, #0
 800463c:	2310      	movs	r3, #16
 800463e:	e9cd 3402 	strd	r3, r4, [sp, #8]
 8004642:	6803      	ldr	r3, [r0, #0]
 8004644:	9400      	str	r4, [sp, #0]
 8004646:	699e      	ldr	r6, [r3, #24]
 8004648:	f88d 4004 	strb.w	r4, [sp, #4]
 800464c:	4615      	mov	r5, r2
 800464e:	466b      	mov	r3, sp
 8004650:	6812      	ldr	r2, [r2, #0]
 8004652:	47b0      	blx	r6
 8004654:	f89d 3004 	ldrb.w	r3, [sp, #4]
 8004658:	f003 0306 	and.w	r3, r3, #6
 800465c:	2b06      	cmp	r3, #6
 800465e:	bf03      	ittte	eq
 8004660:	9b00      	ldreq	r3, [sp, #0]
 8004662:	602b      	streq	r3, [r5, #0]
 8004664:	2001      	moveq	r0, #1
 8004666:	4620      	movne	r0, r4
 8004668:	b004      	add	sp, #16
 800466a:	bd70      	pop	{r4, r5, r6, pc}

0800466c <_ZNK10__cxxabiv117__class_type_info20__do_find_public_srcEiPKvPKS0_S2_>:
 800466c:	9800      	ldr	r0, [sp, #0]
 800466e:	4290      	cmp	r0, r2
 8004670:	bf14      	ite	ne
 8004672:	2001      	movne	r0, #1
 8004674:	2006      	moveq	r0, #6
 8004676:	4770      	bx	lr

08004678 <_ZN10__cxxabiv117__class_type_infoD1Ev>:
 8004678:	b510      	push	{r4, lr}
 800467a:	4b03      	ldr	r3, [pc, #12]	; (8004688 <_ZN10__cxxabiv117__class_type_infoD1Ev+0x10>)
 800467c:	6003      	str	r3, [r0, #0]
 800467e:	4604      	mov	r4, r0
 8004680:	f7ff ffc1 	bl	8004606 <_ZNSt9type_infoD1Ev>
 8004684:	4620      	mov	r0, r4
 8004686:	bd10      	pop	{r4, pc}
 8004688:	08004c70 	.word	0x08004c70

0800468c <_ZN10__cxxabiv117__class_type_infoD0Ev>:
 800468c:	b510      	push	{r4, lr}
 800468e:	4604      	mov	r4, r0
 8004690:	f7ff fff2 	bl	8004678 <_ZN10__cxxabiv117__class_type_infoD1Ev>
 8004694:	4620      	mov	r0, r4
 8004696:	2108      	movs	r1, #8
 8004698:	f7ff fbc2 	bl	8003e20 <_ZdlPvj>
 800469c:	4620      	mov	r0, r4
 800469e:	bd10      	pop	{r4, pc}

080046a0 <_ZNK10__cxxabiv117__class_type_info12__do_dyncastEiNS0_10__sub_kindEPKS0_PKvS3_S5_RNS0_16__dyncast_resultE>:
 80046a0:	e92d 41f0 	stmdb	sp!, {r4, r5, r6, r7, r8, lr}
 80046a4:	461f      	mov	r7, r3
 80046a6:	e9dd 3408 	ldrd	r3, r4, [sp, #32]
 80046aa:	f8dd 8018 	ldr.w	r8, [sp, #24]
 80046ae:	4598      	cmp	r8, r3
 80046b0:	4606      	mov	r6, r0
 80046b2:	4615      	mov	r5, r2
 80046b4:	d107      	bne.n	80046c6 <_ZNK10__cxxabiv117__class_type_info12__do_dyncastEiNS0_10__sub_kindEPKS0_PKvS3_S5_RNS0_16__dyncast_resultE+0x26>
 80046b6:	9907      	ldr	r1, [sp, #28]
 80046b8:	f7ff ffa8 	bl	800460c <_ZNKSt9type_infoeqERKS_>
 80046bc:	b118      	cbz	r0, 80046c6 <_ZNK10__cxxabiv117__class_type_info12__do_dyncastEiNS0_10__sub_kindEPKS0_PKvS3_S5_RNS0_16__dyncast_resultE+0x26>
 80046be:	7165      	strb	r5, [r4, #5]
 80046c0:	2000      	movs	r0, #0
 80046c2:	e8bd 81f0 	ldmia.w	sp!, {r4, r5, r6, r7, r8, pc}
 80046c6:	4639      	mov	r1, r7
 80046c8:	4630      	mov	r0, r6
 80046ca:	f7ff ff9f 	bl	800460c <_ZNKSt9type_infoeqERKS_>
 80046ce:	2800      	cmp	r0, #0
 80046d0:	d0f6      	beq.n	80046c0 <_ZNK10__cxxabiv117__class_type_info12__do_dyncastEiNS0_10__sub_kindEPKS0_PKvS3_S5_RNS0_16__dyncast_resultE+0x20>
 80046d2:	2301      	movs	r3, #1
 80046d4:	f8c4 8000 	str.w	r8, [r4]
 80046d8:	7125      	strb	r5, [r4, #4]
 80046da:	71a3      	strb	r3, [r4, #6]
 80046dc:	e7f0      	b.n	80046c0 <_ZNK10__cxxabiv117__class_type_info12__do_dyncastEiNS0_10__sub_kindEPKS0_PKvS3_S5_RNS0_16__dyncast_resultE+0x20>

080046de <_ZNK10__cxxabiv117__class_type_info11__do_upcastEPKS0_PKvRNS0_15__upcast_resultE>:
 80046de:	b538      	push	{r3, r4, r5, lr}
 80046e0:	4615      	mov	r5, r2
 80046e2:	461c      	mov	r4, r3
 80046e4:	f7ff ff92 	bl	800460c <_ZNKSt9type_infoeqERKS_>
 80046e8:	b120      	cbz	r0, 80046f4 <_ZNK10__cxxabiv117__class_type_info11__do_upcastEPKS0_PKvRNS0_15__upcast_resultE+0x16>
 80046ea:	2308      	movs	r3, #8
 80046ec:	60e3      	str	r3, [r4, #12]
 80046ee:	2306      	movs	r3, #6
 80046f0:	6025      	str	r5, [r4, #0]
 80046f2:	7123      	strb	r3, [r4, #4]
 80046f4:	bd38      	pop	{r3, r4, r5, pc}

080046f6 <_ZNK10__cxxabiv117__class_type_info10__do_catchEPKSt9type_infoPPvj>:
 80046f6:	b573      	push	{r0, r1, r4, r5, r6, lr}
 80046f8:	4605      	mov	r5, r0
 80046fa:	460c      	mov	r4, r1
 80046fc:	9201      	str	r2, [sp, #4]
 80046fe:	461e      	mov	r6, r3
 8004700:	f7ff ff84 	bl	800460c <_ZNKSt9type_infoeqERKS_>
 8004704:	b950      	cbnz	r0, 800471c <_ZNK10__cxxabiv117__class_type_info10__do_catchEPKSt9type_infoPPvj+0x26>
 8004706:	2e03      	cmp	r6, #3
 8004708:	d808      	bhi.n	800471c <_ZNK10__cxxabiv117__class_type_info10__do_catchEPKSt9type_infoPPvj+0x26>
 800470a:	6823      	ldr	r3, [r4, #0]
 800470c:	9a01      	ldr	r2, [sp, #4]
 800470e:	695b      	ldr	r3, [r3, #20]
 8004710:	4629      	mov	r1, r5
 8004712:	4620      	mov	r0, r4
 8004714:	b002      	add	sp, #8
 8004716:	e8bd 4070 	ldmia.w	sp!, {r4, r5, r6, lr}
 800471a:	4718      	bx	r3
 800471c:	b002      	add	sp, #8
 800471e:	bd70      	pop	{r4, r5, r6, pc}

08004720 <_ZdlPv>:
 8004720:	f000 b8c8 	b.w	80048b4 <free>

08004724 <_ZN10__cxxabiv1L24__is_gxx_exception_classEPc>:
 8004724:	7803      	ldrb	r3, [r0, #0]
 8004726:	2b47      	cmp	r3, #71	; 0x47
 8004728:	d117      	bne.n	800475a <_ZN10__cxxabiv1L24__is_gxx_exception_classEPc+0x36>
 800472a:	7843      	ldrb	r3, [r0, #1]
 800472c:	2b4e      	cmp	r3, #78	; 0x4e
 800472e:	d114      	bne.n	800475a <_ZN10__cxxabiv1L24__is_gxx_exception_classEPc+0x36>
 8004730:	7883      	ldrb	r3, [r0, #2]
 8004732:	2b55      	cmp	r3, #85	; 0x55
 8004734:	d111      	bne.n	800475a <_ZN10__cxxabiv1L24__is_gxx_exception_classEPc+0x36>
 8004736:	78c3      	ldrb	r3, [r0, #3]
 8004738:	2b43      	cmp	r3, #67	; 0x43
 800473a:	d10e      	bne.n	800475a <_ZN10__cxxabiv1L24__is_gxx_exception_classEPc+0x36>
 800473c:	7903      	ldrb	r3, [r0, #4]
 800473e:	2b43      	cmp	r3, #67	; 0x43
 8004740:	d10b      	bne.n	800475a <_ZN10__cxxabiv1L24__is_gxx_exception_classEPc+0x36>
 8004742:	7943      	ldrb	r3, [r0, #5]
 8004744:	2b2b      	cmp	r3, #43	; 0x2b
 8004746:	d108      	bne.n	800475a <_ZN10__cxxabiv1L24__is_gxx_exception_classEPc+0x36>
 8004748:	7983      	ldrb	r3, [r0, #6]
 800474a:	2b2b      	cmp	r3, #43	; 0x2b
 800474c:	d105      	bne.n	800475a <_ZN10__cxxabiv1L24__is_gxx_exception_classEPc+0x36>
 800474e:	79c0      	ldrb	r0, [r0, #7]
 8004750:	2801      	cmp	r0, #1
 8004752:	bf8c      	ite	hi
 8004754:	2000      	movhi	r0, #0
 8004756:	2001      	movls	r0, #1
 8004758:	4770      	bx	lr
 800475a:	2000      	movs	r0, #0
 800475c:	4770      	bx	lr

0800475e <__cxa_call_terminate>:
 800475e:	b510      	push	{r4, lr}
 8004760:	4604      	mov	r4, r0
 8004762:	b148      	cbz	r0, 8004778 <__cxa_call_terminate+0x1a>
 8004764:	f000 f83b 	bl	80047de <__cxa_begin_catch>
 8004768:	4620      	mov	r0, r4
 800476a:	f7ff ffdb 	bl	8004724 <_ZN10__cxxabiv1L24__is_gxx_exception_classEPc>
 800476e:	b118      	cbz	r0, 8004778 <__cxa_call_terminate+0x1a>
 8004770:	f854 0c14 	ldr.w	r0, [r4, #-20]
 8004774:	f7ff fe94 	bl	80044a0 <_ZN10__cxxabiv111__terminateEPFvvE>
 8004778:	f7ff fe9e 	bl	80044b8 <_ZSt9terminatev>

0800477c <__cxa_call_unexpected>:
 800477c:	b538      	push	{r3, r4, r5, lr}
 800477e:	4602      	mov	r2, r0
 8004780:	f7ff ffd0 	bl	8004724 <_ZN10__cxxabiv1L24__is_gxx_exception_classEPc>
 8004784:	b140      	cbz	r0, 8004798 <__cxa_call_unexpected+0x1c>
 8004786:	f852 4c18 	ldr.w	r4, [r2, #-24]
 800478a:	2500      	movs	r5, #0
 800478c:	4610      	mov	r0, r2
 800478e:	f000 f826 	bl	80047de <__cxa_begin_catch>
 8004792:	b125      	cbz	r5, 800479e <__cxa_call_unexpected+0x22>
 8004794:	f7ff fea2 	bl	80044dc <_ZSt10unexpectedv>
 8004798:	4604      	mov	r4, r0
 800479a:	2501      	movs	r5, #1
 800479c:	e7f6      	b.n	800478c <__cxa_call_unexpected+0x10>
 800479e:	4620      	mov	r0, r4
 80047a0:	f7ff fe8f 	bl	80044c2 <_ZN10__cxxabiv112__unexpectedEPFvvE>

080047a4 <_ZN10__cxxabiv1L24__is_gxx_exception_classEPc>:
 80047a4:	7803      	ldrb	r3, [r0, #0]
 80047a6:	2b47      	cmp	r3, #71	; 0x47
 80047a8:	d117      	bne.n	80047da <_ZN10__cxxabiv1L24__is_gxx_exception_classEPc+0x36>
 80047aa:	7843      	ldrb	r3, [r0, #1]
 80047ac:	2b4e      	cmp	r3, #78	; 0x4e
 80047ae:	d114      	bne.n	80047da <_ZN10__cxxabiv1L24__is_gxx_exception_classEPc+0x36>
 80047b0:	7883      	ldrb	r3, [r0, #2]
 80047b2:	2b55      	cmp	r3, #85	; 0x55
 80047b4:	d111      	bne.n	80047da <_ZN10__cxxabiv1L24__is_gxx_exception_classEPc+0x36>
 80047b6:	78c3      	ldrb	r3, [r0, #3]
 80047b8:	2b43      	cmp	r3, #67	; 0x43
 80047ba:	d10e      	bne.n	80047da <_ZN10__cxxabiv1L24__is_gxx_exception_classEPc+0x36>
 80047bc:	7903      	ldrb	r3, [r0, #4]
 80047be:	2b43      	cmp	r3, #67	; 0x43
 80047c0:	d10b      	bne.n	80047da <_ZN10__cxxabiv1L24__is_gxx_exception_classEPc+0x36>
 80047c2:	7943      	ldrb	r3, [r0, #5]
 80047c4:	2b2b      	cmp	r3, #43	; 0x2b
 80047c6:	d108      	bne.n	80047da <_ZN10__cxxabiv1L24__is_gxx_exception_classEPc+0x36>
 80047c8:	7983      	ldrb	r3, [r0, #6]
 80047ca:	2b2b      	cmp	r3, #43	; 0x2b
 80047cc:	d105      	bne.n	80047da <_ZN10__cxxabiv1L24__is_gxx_exception_classEPc+0x36>
 80047ce:	79c0      	ldrb	r0, [r0, #7]
 80047d0:	2801      	cmp	r0, #1
 80047d2:	bf8c      	ite	hi
 80047d4:	2000      	movhi	r0, #0
 80047d6:	2001      	movls	r0, #1
 80047d8:	4770      	bx	lr
 80047da:	2000      	movs	r0, #0
 80047dc:	4770      	bx	lr

080047de <__cxa_begin_catch>:
 80047de:	b538      	push	{r3, r4, r5, lr}
 80047e0:	4604      	mov	r4, r0
 80047e2:	f7ff fbd7 	bl	8003f94 <__cxa_get_globals>
 80047e6:	6805      	ldr	r5, [r0, #0]
 80047e8:	4602      	mov	r2, r0
 80047ea:	4620      	mov	r0, r4
 80047ec:	f1a4 0120 	sub.w	r1, r4, #32
 80047f0:	f7ff ffd8 	bl	80047a4 <_ZN10__cxxabiv1L24__is_gxx_exception_classEPc>
 80047f4:	b928      	cbnz	r0, 8004802 <__cxa_begin_catch+0x24>
 80047f6:	b10d      	cbz	r5, 80047fc <__cxa_begin_catch+0x1e>
 80047f8:	f7ff fe5e 	bl	80044b8 <_ZSt9terminatev>
 80047fc:	6011      	str	r1, [r2, #0]
 80047fe:	4628      	mov	r0, r5
 8004800:	bd38      	pop	{r3, r4, r5, pc}
 8004802:	f854 3c0c 	ldr.w	r3, [r4, #-12]
 8004806:	2b00      	cmp	r3, #0
 8004808:	bfb4      	ite	lt
 800480a:	f1c3 0301 	rsblt	r3, r3, #1
 800480e:	3301      	addge	r3, #1
 8004810:	f844 3c0c 	str.w	r3, [r4, #-12]
 8004814:	6853      	ldr	r3, [r2, #4]
 8004816:	428d      	cmp	r5, r1
 8004818:	f103 33ff 	add.w	r3, r3, #4294967295	; 0xffffffff
 800481c:	6053      	str	r3, [r2, #4]
 800481e:	4620      	mov	r0, r4
 8004820:	bf1c      	itt	ne
 8004822:	f844 5c10 	strne.w	r5, [r4, #-16]
 8004826:	6011      	strne	r1, [r2, #0]
 8004828:	6a65      	ldr	r5, [r4, #36]	; 0x24
 800482a:	f7fc f99b 	bl	8000b64 <_Unwind_Complete>
 800482e:	e7e6      	b.n	80047fe <__cxa_begin_catch+0x20>

08004830 <_ZSt15get_new_handlerv>:
 8004830:	4b02      	ldr	r3, [pc, #8]	; (800483c <_ZSt15get_new_handlerv+0xc>)
 8004832:	6818      	ldr	r0, [r3, #0]
 8004834:	f3bf 8f5b 	dmb	ish
 8004838:	4770      	bx	lr
 800483a:	bf00      	nop
 800483c:	20000168 	.word	0x20000168

08004840 <abort>:
 8004840:	b508      	push	{r3, lr}
 8004842:	2006      	movs	r0, #6
 8004844:	f000 f928 	bl	8004a98 <raise>
 8004848:	2001      	movs	r0, #1
 800484a:	f7fd fa05 	bl	8001c58 <_exit>
	...

08004850 <__errno>:
 8004850:	4b01      	ldr	r3, [pc, #4]	; (8004858 <__errno+0x8>)
 8004852:	6818      	ldr	r0, [r3, #0]
 8004854:	4770      	bx	lr
 8004856:	bf00      	nop
 8004858:	20000014 	.word	0x20000014

0800485c <__libc_init_array>:
 800485c:	b570      	push	{r4, r5, r6, lr}
 800485e:	4d0d      	ldr	r5, [pc, #52]	; (8004894 <__libc_init_array+0x38>)
 8004860:	4c0d      	ldr	r4, [pc, #52]	; (8004898 <__libc_init_array+0x3c>)
 8004862:	1b64      	subs	r4, r4, r5
 8004864:	10a4      	asrs	r4, r4, #2
 8004866:	2600      	movs	r6, #0
 8004868:	42a6      	cmp	r6, r4
 800486a:	d109      	bne.n	8004880 <__libc_init_array+0x24>
 800486c:	4d0b      	ldr	r5, [pc, #44]	; (800489c <__libc_init_array+0x40>)
 800486e:	4c0c      	ldr	r4, [pc, #48]	; (80048a0 <__libc_init_array+0x44>)
 8004870:	f000 f950 	bl	8004b14 <_init>
 8004874:	1b64      	subs	r4, r4, r5
 8004876:	10a4      	asrs	r4, r4, #2
 8004878:	2600      	movs	r6, #0
 800487a:	42a6      	cmp	r6, r4
 800487c:	d105      	bne.n	800488a <__libc_init_array+0x2e>
 800487e:	bd70      	pop	{r4, r5, r6, pc}
 8004880:	f855 3b04 	ldr.w	r3, [r5], #4
 8004884:	4798      	blx	r3
 8004886:	3601      	adds	r6, #1
 8004888:	e7ee      	b.n	8004868 <__libc_init_array+0xc>
 800488a:	f855 3b04 	ldr.w	r3, [r5], #4
 800488e:	4798      	blx	r3
 8004890:	3601      	adds	r6, #1
 8004892:	e7f2      	b.n	800487a <__libc_init_array+0x1e>
 8004894:	08004dc8 	.word	0x08004dc8
 8004898:	08004dc8 	.word	0x08004dc8
 800489c:	08004dc8 	.word	0x08004dc8
 80048a0:	08004dcc 	.word	0x08004dcc

080048a4 <malloc>:
 80048a4:	4b02      	ldr	r3, [pc, #8]	; (80048b0 <malloc+0xc>)
 80048a6:	4601      	mov	r1, r0
 80048a8:	6818      	ldr	r0, [r3, #0]
 80048aa:	f000 b863 	b.w	8004974 <_malloc_r>
 80048ae:	bf00      	nop
 80048b0:	20000014 	.word	0x20000014

080048b4 <free>:
 80048b4:	4b02      	ldr	r3, [pc, #8]	; (80048c0 <free+0xc>)
 80048b6:	4601      	mov	r1, r0
 80048b8:	6818      	ldr	r0, [r3, #0]
 80048ba:	f000 b80b 	b.w	80048d4 <_free_r>
 80048be:	bf00      	nop
 80048c0:	20000014 	.word	0x20000014

080048c4 <memset>:
 80048c4:	4402      	add	r2, r0
 80048c6:	4603      	mov	r3, r0
 80048c8:	4293      	cmp	r3, r2
 80048ca:	d100      	bne.n	80048ce <memset+0xa>
 80048cc:	4770      	bx	lr
 80048ce:	f803 1b01 	strb.w	r1, [r3], #1
 80048d2:	e7f9      	b.n	80048c8 <memset+0x4>

080048d4 <_free_r>:
 80048d4:	b537      	push	{r0, r1, r2, r4, r5, lr}
 80048d6:	2900      	cmp	r1, #0
 80048d8:	d048      	beq.n	800496c <_free_r+0x98>
 80048da:	f851 3c04 	ldr.w	r3, [r1, #-4]
 80048de:	9001      	str	r0, [sp, #4]
 80048e0:	2b00      	cmp	r3, #0
 80048e2:	f1a1 0404 	sub.w	r4, r1, #4
 80048e6:	bfb8      	it	lt
 80048e8:	18e4      	addlt	r4, r4, r3
 80048ea:	f000 f8f1 	bl	8004ad0 <__malloc_lock>
 80048ee:	4a20      	ldr	r2, [pc, #128]	; (8004970 <_free_r+0x9c>)
 80048f0:	9801      	ldr	r0, [sp, #4]
 80048f2:	6813      	ldr	r3, [r2, #0]
 80048f4:	4615      	mov	r5, r2
 80048f6:	b933      	cbnz	r3, 8004906 <_free_r+0x32>
 80048f8:	6063      	str	r3, [r4, #4]
 80048fa:	6014      	str	r4, [r2, #0]
 80048fc:	b003      	add	sp, #12
 80048fe:	e8bd 4030 	ldmia.w	sp!, {r4, r5, lr}
 8004902:	f000 b8eb 	b.w	8004adc <__malloc_unlock>
 8004906:	42a3      	cmp	r3, r4
 8004908:	d90b      	bls.n	8004922 <_free_r+0x4e>
 800490a:	6821      	ldr	r1, [r4, #0]
 800490c:	1862      	adds	r2, r4, r1
 800490e:	4293      	cmp	r3, r2
 8004910:	bf04      	itt	eq
 8004912:	681a      	ldreq	r2, [r3, #0]
 8004914:	685b      	ldreq	r3, [r3, #4]
 8004916:	6063      	str	r3, [r4, #4]
 8004918:	bf04      	itt	eq
 800491a:	1852      	addeq	r2, r2, r1
 800491c:	6022      	streq	r2, [r4, #0]
 800491e:	602c      	str	r4, [r5, #0]
 8004920:	e7ec      	b.n	80048fc <_free_r+0x28>
 8004922:	461a      	mov	r2, r3
 8004924:	685b      	ldr	r3, [r3, #4]
 8004926:	b10b      	cbz	r3, 800492c <_free_r+0x58>
 8004928:	42a3      	cmp	r3, r4
 800492a:	d9fa      	bls.n	8004922 <_free_r+0x4e>
 800492c:	6811      	ldr	r1, [r2, #0]
 800492e:	1855      	adds	r5, r2, r1
 8004930:	42a5      	cmp	r5, r4
 8004932:	d10b      	bne.n	800494c <_free_r+0x78>
 8004934:	6824      	ldr	r4, [r4, #0]
 8004936:	4421      	add	r1, r4
 8004938:	1854      	adds	r4, r2, r1
 800493a:	42a3      	cmp	r3, r4
 800493c:	6011      	str	r1, [r2, #0]
 800493e:	d1dd      	bne.n	80048fc <_free_r+0x28>
 8004940:	681c      	ldr	r4, [r3, #0]
 8004942:	685b      	ldr	r3, [r3, #4]
 8004944:	6053      	str	r3, [r2, #4]
 8004946:	4421      	add	r1, r4
 8004948:	6011      	str	r1, [r2, #0]
 800494a:	e7d7      	b.n	80048fc <_free_r+0x28>
 800494c:	d902      	bls.n	8004954 <_free_r+0x80>
 800494e:	230c      	movs	r3, #12
 8004950:	6003      	str	r3, [r0, #0]
 8004952:	e7d3      	b.n	80048fc <_free_r+0x28>
 8004954:	6825      	ldr	r5, [r4, #0]
 8004956:	1961      	adds	r1, r4, r5
 8004958:	428b      	cmp	r3, r1
 800495a:	bf04      	itt	eq
 800495c:	6819      	ldreq	r1, [r3, #0]
 800495e:	685b      	ldreq	r3, [r3, #4]
 8004960:	6063      	str	r3, [r4, #4]
 8004962:	bf04      	itt	eq
 8004964:	1949      	addeq	r1, r1, r5
 8004966:	6021      	streq	r1, [r4, #0]
 8004968:	6054      	str	r4, [r2, #4]
 800496a:	e7c7      	b.n	80048fc <_free_r+0x28>
 800496c:	b003      	add	sp, #12
 800496e:	bd30      	pop	{r4, r5, pc}
 8004970:	2000016c 	.word	0x2000016c

08004974 <_malloc_r>:
 8004974:	b5f8      	push	{r3, r4, r5, r6, r7, lr}
 8004976:	1ccd      	adds	r5, r1, #3
 8004978:	f025 0503 	bic.w	r5, r5, #3
 800497c:	3508      	adds	r5, #8
 800497e:	2d0c      	cmp	r5, #12
 8004980:	bf38      	it	cc
 8004982:	250c      	movcc	r5, #12
 8004984:	2d00      	cmp	r5, #0
 8004986:	4606      	mov	r6, r0
 8004988:	db01      	blt.n	800498e <_malloc_r+0x1a>
 800498a:	42a9      	cmp	r1, r5
 800498c:	d903      	bls.n	8004996 <_malloc_r+0x22>
 800498e:	230c      	movs	r3, #12
 8004990:	6033      	str	r3, [r6, #0]
 8004992:	2000      	movs	r0, #0
 8004994:	bdf8      	pop	{r3, r4, r5, r6, r7, pc}
 8004996:	f000 f89b 	bl	8004ad0 <__malloc_lock>
 800499a:	4921      	ldr	r1, [pc, #132]	; (8004a20 <_malloc_r+0xac>)
 800499c:	680a      	ldr	r2, [r1, #0]
 800499e:	4614      	mov	r4, r2
 80049a0:	b99c      	cbnz	r4, 80049ca <_malloc_r+0x56>
 80049a2:	4f20      	ldr	r7, [pc, #128]	; (8004a24 <_malloc_r+0xb0>)
 80049a4:	683b      	ldr	r3, [r7, #0]
 80049a6:	b923      	cbnz	r3, 80049b2 <_malloc_r+0x3e>
 80049a8:	4621      	mov	r1, r4
 80049aa:	4630      	mov	r0, r6
 80049ac:	f000 f83c 	bl	8004a28 <_sbrk_r>
 80049b0:	6038      	str	r0, [r7, #0]
 80049b2:	4629      	mov	r1, r5
 80049b4:	4630      	mov	r0, r6
 80049b6:	f000 f837 	bl	8004a28 <_sbrk_r>
 80049ba:	1c43      	adds	r3, r0, #1
 80049bc:	d123      	bne.n	8004a06 <_malloc_r+0x92>
 80049be:	230c      	movs	r3, #12
 80049c0:	6033      	str	r3, [r6, #0]
 80049c2:	4630      	mov	r0, r6
 80049c4:	f000 f88a 	bl	8004adc <__malloc_unlock>
 80049c8:	e7e3      	b.n	8004992 <_malloc_r+0x1e>
 80049ca:	6823      	ldr	r3, [r4, #0]
 80049cc:	1b5b      	subs	r3, r3, r5
 80049ce:	d417      	bmi.n	8004a00 <_malloc_r+0x8c>
 80049d0:	2b0b      	cmp	r3, #11
 80049d2:	d903      	bls.n	80049dc <_malloc_r+0x68>
 80049d4:	6023      	str	r3, [r4, #0]
 80049d6:	441c      	add	r4, r3
 80049d8:	6025      	str	r5, [r4, #0]
 80049da:	e004      	b.n	80049e6 <_malloc_r+0x72>
 80049dc:	6863      	ldr	r3, [r4, #4]
 80049de:	42a2      	cmp	r2, r4
 80049e0:	bf0c      	ite	eq
 80049e2:	600b      	streq	r3, [r1, #0]
 80049e4:	6053      	strne	r3, [r2, #4]
 80049e6:	4630      	mov	r0, r6
 80049e8:	f000 f878 	bl	8004adc <__malloc_unlock>
 80049ec:	f104 000b 	add.w	r0, r4, #11
 80049f0:	1d23      	adds	r3, r4, #4
 80049f2:	f020 0007 	bic.w	r0, r0, #7
 80049f6:	1ac2      	subs	r2, r0, r3
 80049f8:	d0cc      	beq.n	8004994 <_malloc_r+0x20>
 80049fa:	1a1b      	subs	r3, r3, r0
 80049fc:	50a3      	str	r3, [r4, r2]
 80049fe:	e7c9      	b.n	8004994 <_malloc_r+0x20>
 8004a00:	4622      	mov	r2, r4
 8004a02:	6864      	ldr	r4, [r4, #4]
 8004a04:	e7cc      	b.n	80049a0 <_malloc_r+0x2c>
 8004a06:	1cc4      	adds	r4, r0, #3
 8004a08:	f024 0403 	bic.w	r4, r4, #3
 8004a0c:	42a0      	cmp	r0, r4
 8004a0e:	d0e3      	beq.n	80049d8 <_malloc_r+0x64>
 8004a10:	1a21      	subs	r1, r4, r0
 8004a12:	4630      	mov	r0, r6
 8004a14:	f000 f808 	bl	8004a28 <_sbrk_r>
 8004a18:	3001      	adds	r0, #1
 8004a1a:	d1dd      	bne.n	80049d8 <_malloc_r+0x64>
 8004a1c:	e7cf      	b.n	80049be <_malloc_r+0x4a>
 8004a1e:	bf00      	nop
 8004a20:	2000016c 	.word	0x2000016c
 8004a24:	20000170 	.word	0x20000170

08004a28 <_sbrk_r>:
 8004a28:	b538      	push	{r3, r4, r5, lr}
 8004a2a:	4d06      	ldr	r5, [pc, #24]	; (8004a44 <_sbrk_r+0x1c>)
 8004a2c:	2300      	movs	r3, #0
 8004a2e:	4604      	mov	r4, r0
 8004a30:	4608      	mov	r0, r1
 8004a32:	602b      	str	r3, [r5, #0]
 8004a34:	f7fd f916 	bl	8001c64 <_sbrk>
 8004a38:	1c43      	adds	r3, r0, #1
 8004a3a:	d102      	bne.n	8004a42 <_sbrk_r+0x1a>
 8004a3c:	682b      	ldr	r3, [r5, #0]
 8004a3e:	b103      	cbz	r3, 8004a42 <_sbrk_r+0x1a>
 8004a40:	6023      	str	r3, [r4, #0]
 8004a42:	bd38      	pop	{r3, r4, r5, pc}
 8004a44:	20000178 	.word	0x20000178

08004a48 <_raise_r>:
 8004a48:	291f      	cmp	r1, #31
 8004a4a:	b538      	push	{r3, r4, r5, lr}
 8004a4c:	4604      	mov	r4, r0
 8004a4e:	460d      	mov	r5, r1
 8004a50:	d904      	bls.n	8004a5c <_raise_r+0x14>
 8004a52:	2316      	movs	r3, #22
 8004a54:	6003      	str	r3, [r0, #0]
 8004a56:	f04f 30ff 	mov.w	r0, #4294967295	; 0xffffffff
 8004a5a:	bd38      	pop	{r3, r4, r5, pc}
 8004a5c:	6c42      	ldr	r2, [r0, #68]	; 0x44
 8004a5e:	b112      	cbz	r2, 8004a66 <_raise_r+0x1e>
 8004a60:	f852 3021 	ldr.w	r3, [r2, r1, lsl #2]
 8004a64:	b94b      	cbnz	r3, 8004a7a <_raise_r+0x32>
 8004a66:	4620      	mov	r0, r4
 8004a68:	f000 f830 	bl	8004acc <_getpid_r>
 8004a6c:	462a      	mov	r2, r5
 8004a6e:	4601      	mov	r1, r0
 8004a70:	4620      	mov	r0, r4
 8004a72:	e8bd 4038 	ldmia.w	sp!, {r3, r4, r5, lr}
 8004a76:	f000 b817 	b.w	8004aa8 <_kill_r>
 8004a7a:	2b01      	cmp	r3, #1
 8004a7c:	d00a      	beq.n	8004a94 <_raise_r+0x4c>
 8004a7e:	1c59      	adds	r1, r3, #1
 8004a80:	d103      	bne.n	8004a8a <_raise_r+0x42>
 8004a82:	2316      	movs	r3, #22
 8004a84:	6003      	str	r3, [r0, #0]
 8004a86:	2001      	movs	r0, #1
 8004a88:	e7e7      	b.n	8004a5a <_raise_r+0x12>
 8004a8a:	2400      	movs	r4, #0
 8004a8c:	f842 4025 	str.w	r4, [r2, r5, lsl #2]
 8004a90:	4628      	mov	r0, r5
 8004a92:	4798      	blx	r3
 8004a94:	2000      	movs	r0, #0
 8004a96:	e7e0      	b.n	8004a5a <_raise_r+0x12>

08004a98 <raise>:
 8004a98:	4b02      	ldr	r3, [pc, #8]	; (8004aa4 <raise+0xc>)
 8004a9a:	4601      	mov	r1, r0
 8004a9c:	6818      	ldr	r0, [r3, #0]
 8004a9e:	f7ff bfd3 	b.w	8004a48 <_raise_r>
 8004aa2:	bf00      	nop
 8004aa4:	20000014 	.word	0x20000014

08004aa8 <_kill_r>:
 8004aa8:	b538      	push	{r3, r4, r5, lr}
 8004aaa:	4d07      	ldr	r5, [pc, #28]	; (8004ac8 <_kill_r+0x20>)
 8004aac:	2300      	movs	r3, #0
 8004aae:	4604      	mov	r4, r0
 8004ab0:	4608      	mov	r0, r1
 8004ab2:	4611      	mov	r1, r2
 8004ab4:	602b      	str	r3, [r5, #0]
 8004ab6:	f7fd f8c7 	bl	8001c48 <_kill>
 8004aba:	1c43      	adds	r3, r0, #1
 8004abc:	d102      	bne.n	8004ac4 <_kill_r+0x1c>
 8004abe:	682b      	ldr	r3, [r5, #0]
 8004ac0:	b103      	cbz	r3, 8004ac4 <_kill_r+0x1c>
 8004ac2:	6023      	str	r3, [r4, #0]
 8004ac4:	bd38      	pop	{r3, r4, r5, pc}
 8004ac6:	bf00      	nop
 8004ac8:	20000178 	.word	0x20000178

08004acc <_getpid_r>:
 8004acc:	f7fd b8ba 	b.w	8001c44 <_getpid>

08004ad0 <__malloc_lock>:
 8004ad0:	4801      	ldr	r0, [pc, #4]	; (8004ad8 <__malloc_lock+0x8>)
 8004ad2:	f000 b809 	b.w	8004ae8 <__retarget_lock_acquire_recursive>
 8004ad6:	bf00      	nop
 8004ad8:	20000180 	.word	0x20000180

08004adc <__malloc_unlock>:
 8004adc:	4801      	ldr	r0, [pc, #4]	; (8004ae4 <__malloc_unlock+0x8>)
 8004ade:	f000 b804 	b.w	8004aea <__retarget_lock_release_recursive>
 8004ae2:	bf00      	nop
 8004ae4:	20000180 	.word	0x20000180

08004ae8 <__retarget_lock_acquire_recursive>:
 8004ae8:	4770      	bx	lr

08004aea <__retarget_lock_release_recursive>:
 8004aea:	4770      	bx	lr

08004aec <_Unwind_GetDataRelBase>:
 8004aec:	b508      	push	{r3, lr}
 8004aee:	f7ff fea7 	bl	8004840 <abort>

08004af2 <_Unwind_GetTextRelBase>:
 8004af2:	b508      	push	{r3, lr}
 8004af4:	f7ff fffa 	bl	8004aec <_Unwind_GetDataRelBase>

08004af8 <memcpy>:
 8004af8:	440a      	add	r2, r1
 8004afa:	4291      	cmp	r1, r2
 8004afc:	f100 33ff 	add.w	r3, r0, #4294967295	; 0xffffffff
 8004b00:	d100      	bne.n	8004b04 <memcpy+0xc>
 8004b02:	4770      	bx	lr
 8004b04:	b510      	push	{r4, lr}
 8004b06:	f811 4b01 	ldrb.w	r4, [r1], #1
 8004b0a:	f803 4f01 	strb.w	r4, [r3, #1]!
 8004b0e:	4291      	cmp	r1, r2
 8004b10:	d1f9      	bne.n	8004b06 <memcpy+0xe>
 8004b12:	bd10      	pop	{r4, pc}

08004b14 <_init>:
 8004b14:	b5f8      	push	{r3, r4, r5, r6, r7, lr}
 8004b16:	bf00      	nop
 8004b18:	bcf8      	pop	{r3, r4, r5, r6, r7}
 8004b1a:	bc08      	pop	{r3}
 8004b1c:	469e      	mov	lr, r3
 8004b1e:	4770      	bx	lr

08004b20 <_fini>:
 8004b20:	b5f8      	push	{r3, r4, r5, r6, r7, lr}
 8004b22:	bf00      	nop
 8004b24:	bcf8      	pop	{r3, r4, r5, r6, r7}
 8004b26:	bc08      	pop	{r3}
 8004b28:	469e      	mov	lr, r3
 8004b2a:	4770      	bx	lr
